---
triple:          'arm64-apple-darwin'
binary-path:     '/Users/yordanstoilov/Desktop/headrush/Coding/C_preparation/CPP-OOP/07.Polymorphism/Calculator/build/main'
relocations:
  - { offsetInCU: 0x9ED8, offset: 0x9ED8, size: 0x8, addend: 0x0, symName: __ZNSt3__111make_sharedB7v160006I19AdvancedInterpreterJR17CalculationEngineEvEENS_10shared_ptrIT_EEDpOT0_, symObjAddr: 0x48, symBinAddr: 0x100003CE4, symSize: 0x40 }
  - { offsetInCU: 0xA343, offset: 0xA343, size: 0x8, addend: 0x0, symName: __ZNSt3__1rsB7v160006IcNS_11char_traitsIcEENS_9allocatorIcEEEERNS_13basic_istreamIT_T0_EES9_RNS_12basic_stringIS6_S7_T1_EE, symObjAddr: 0x2EC, symBinAddr: 0x100003F88, symSize: 0x31C }
  - { offsetInCU: 0xAAD1, offset: 0xAAD1, size: 0x8, addend: 0x0, symName: __ZNSt3__1eqB7v160006IcNS_11char_traitsIcEENS_9allocatorIcEEEEbRKNS_12basic_stringIT_T0_T1_EEPKS6_, symObjAddr: 0x634, symBinAddr: 0x1000042D0, symSize: 0xAC }
  - { offsetInCU: 0xAB38, offset: 0xAB38, size: 0x8, addend: 0x0, symName: __ZNSt3__14endlB7v160006IcNS_11char_traitsIcEEEERNS_13basic_ostreamIT_T0_EES7_, symObjAddr: 0x89C, symBinAddr: 0x100004538, symSize: 0x58 }
  - { offsetInCU: 0xB45B, offset: 0xB45B, size: 0x8, addend: 0x0, symName: __ZNSt3__119__debug_db_insert_cB7v160006INS_12basic_stringIcNS_11char_traitsIcEENS_9allocatorIcEEEEEEvPT_, symObjAddr: 0xFE4, symBinAddr: 0x100004C80, symSize: 0x10 }
  - { offsetInCU: 0xB48C, offset: 0xB48C, size: 0x8, addend: 0x0, symName: __ZNSt3__14swapB7v160006IP9OperationEENS_9enable_ifIXaasr21is_move_constructibleIT_EE5valuesr18is_move_assignableIS4_EE5valueEvE4typeERS4_S7_, symObjAddr: 0x1208, symBinAddr: 0x100004EA4, symSize: 0x3C }
  - { offsetInCU: 0xB4DD, offset: 0xB4DD, size: 0x8, addend: 0x0, symName: __ZNSt3__14swapB7v160006IPNS_19__shared_weak_countEEENS_9enable_ifIXaasr21is_move_constructibleIT_EE5valuesr18is_move_assignableIS4_EE5valueEvE4typeERS4_S7_, symObjAddr: 0x1244, symBinAddr: 0x100004EE0, symSize: 0x3C }
  - { offsetInCU: 0xB52E, offset: 0xB52E, size: 0x8, addend: 0x0, symName: __ZNSt3__134__libcpp_atomic_refcount_incrementB7v160006IlEET_RS1_, symObjAddr: 0x13C0, symBinAddr: 0x10000505C, symSize: 0x30 }
  - { offsetInCU: 0xB563, offset: 0xB563, size: 0x8, addend: 0x0, symName: __ZNSt3__134__libcpp_atomic_refcount_decrementB7v160006IlEET_RS1_, symObjAddr: 0x14FC, symBinAddr: 0x100005198, symSize: 0x30 }
  - { offsetInCU: 0xB598, offset: 0xB598, size: 0x8, addend: 0x0, symName: __ZNSt3__118__constexpr_strlenB7v160006EPKc, symObjAddr: 0x1734, symBinAddr: 0x1000053D0, symSize: 0x24 }
  - { offsetInCU: 0xB5C4, offset: 0xB5C4, size: 0x8, addend: 0x0, symName: __ZNSt3__115allocate_sharedB7v160006I19AdvancedInterpreterNS_9allocatorIS1_EEJR17CalculationEngineEvEENS_10shared_ptrIT_EERKT0_DpOT1_, symObjAddr: 0x1824, symBinAddr: 0x1000054C0, symSize: 0x98 }
  - { offsetInCU: 0xB8D2, offset: 0xB8D2, size: 0x8, addend: 0x0, symName: __ZNSt3__117__libcpp_allocateB7v160006Emm, symObjAddr: 0x1C2C, symBinAddr: 0x1000058C8, symSize: 0x60 }
  - { offsetInCU: 0xB92C, offset: 0xB92C, size: 0x8, addend: 0x0, symName: __ZNSt3__124__is_overaligned_for_newB7v160006Em, symObjAddr: 0x1CAC, symBinAddr: 0x100005948, symSize: 0x20 }
  - { offsetInCU: 0xB95A, offset: 0xB95A, size: 0x8, addend: 0x0, symName: __ZNSt3__121__libcpp_operator_newB7v160006IJmSt11align_val_tEEEPvDpT_, symObjAddr: 0x1CCC, symBinAddr: 0x100005968, symSize: 0x2C }
  - { offsetInCU: 0xB9A7, offset: 0xB9A7, size: 0x8, addend: 0x0, symName: __ZNSt3__121__libcpp_operator_newB7v160006IJmEEEPvDpT_, symObjAddr: 0x1CF8, symBinAddr: 0x100005994, symSize: 0x24 }
  - { offsetInCU: 0xB9E0, offset: 0xB9E0, size: 0x8, addend: 0x0, symName: __ZNSt3__111make_sharedB7v160006I9MemorySetJEvEENS_10shared_ptrIT_EEDpOT0_, symObjAddr: 0x20E0, symBinAddr: 0x100005D7C, symSize: 0x38 }
  - { offsetInCU: 0xBA0E, offset: 0xBA0E, size: 0x8, addend: 0x0, symName: __ZNSt3__111make_sharedB7v160006I23MultiplicationOperationJEvEENS_10shared_ptrIT_EEDpOT0_, symObjAddr: 0x230C, symBinAddr: 0x100005FA8, symSize: 0x38 }
  - { offsetInCU: 0xBC58, offset: 0xBC58, size: 0x8, addend: 0x0, symName: __ZNSt3__115allocate_sharedB7v160006I23MultiplicationOperationNS_9allocatorIS1_EEJEvEENS_10shared_ptrIT_EERKT0_DpOT1_, symObjAddr: 0x23A4, symBinAddr: 0x100006040, symSize: 0x90 }
  - { offsetInCU: 0xBF51, offset: 0xBF51, size: 0x8, addend: 0x0, symName: __ZNSt3__119__debug_db_insert_cB7v160006INS_6vectorIiNS_9allocatorIiEEEEEEvPT_, symObjAddr: 0x2C6C, symBinAddr: 0x100006908, symSize: 0x10 }
  - { offsetInCU: 0xBF82, offset: 0xBF82, size: 0x8, addend: 0x0, symName: __ZNSt3__112__to_addressB7v160006IiEEPT_S2_, symObjAddr: 0x3034, symBinAddr: 0x100006CD0, symSize: 0x14 }
  - { offsetInCU: 0xBFB7, offset: 0xBFB7, size: 0x8, addend: 0x0, symName: __ZNSt3__13maxB7v160006ImEERKT_S3_S3_, symObjAddr: 0x3458, symBinAddr: 0x1000070F4, symSize: 0x2C }
  - { offsetInCU: 0xBFFA, offset: 0xBFFA, size: 0x8, addend: 0x0, symName: __ZNSt3__13minB7v160006ImEERKT_S3_S3_, symObjAddr: 0x3484, symBinAddr: 0x100007120, symSize: 0x2C }
  - { offsetInCU: 0xC227, offset: 0xC227, size: 0x8, addend: 0x0, symName: __ZNSt3__13minB7v160006ImNS_6__lessImmEEEERKT_S5_S5_T0_, symObjAddr: 0x3510, symBinAddr: 0x1000071AC, symSize: 0x54 }
  - { offsetInCU: 0xC2BC, offset: 0xC2BC, size: 0x8, addend: 0x0, symName: __ZNSt3__120__throw_length_errorB7v160006EPKc, symObjAddr: 0x35EC, symBinAddr: 0x100007288, symSize: 0x64 }
  - { offsetInCU: 0xC2E4, offset: 0xC2E4, size: 0x8, addend: 0x0, symName: __ZNSt3__13maxB7v160006ImNS_6__lessImmEEEERKT_S5_S5_T0_, symObjAddr: 0x3730, symBinAddr: 0x1000073CC, symSize: 0x54 }
  - { offsetInCU: 0xC33E, offset: 0xC33E, size: 0x8, addend: 0x0, symName: __ZNSt3__119__allocate_at_leastB7v160006INS_9allocatorIiEEEENS_19__allocation_resultINS_16allocator_traitsIT_E7pointerEEERS5_m, symObjAddr: 0x3894, symBinAddr: 0x100007530, symSize: 0x40 }
  - { offsetInCU: 0xC381, offset: 0xC381, size: 0x8, addend: 0x0, symName: __ZNSt3__142__uninitialized_allocator_move_if_noexceptB7v160006INS_9allocatorIiEENS_16reverse_iteratorIPiEES5_ivEET1_RT_T0_S9_S6_, symObjAddr: 0x3B00, symBinAddr: 0x10000779C, symSize: 0x78 }
  - { offsetInCU: 0xC3FE, offset: 0xC3FE, size: 0x8, addend: 0x0, symName: __ZNSt3__14swapB7v160006IPiEENS_9enable_ifIXaasr21is_move_constructibleIT_EE5valuesr18is_move_assignableIS3_EE5valueEvE4typeERS3_S6_, symObjAddr: 0x3BC4, symBinAddr: 0x100007860, symSize: 0x3C }
  - { offsetInCU: 0xC44F, offset: 0xC44F, size: 0x8, addend: 0x0, symName: __ZNSt3__125__debug_db_invalidate_allB7v160006INS_6vectorIiNS_9allocatorIiEEEEEEvPT_, symObjAddr: 0x3CAC, symBinAddr: 0x100007948, symSize: 0x10 }
  - { offsetInCU: 0xC480, offset: 0xC480, size: 0x8, addend: 0x0, symName: __ZNSt3__14moveB7v160006INS_16reverse_iteratorIPiEES3_EET0_T_S5_S4_, symObjAddr: 0x3D04, symBinAddr: 0x1000079A0, symSize: 0x78 }
  - { offsetInCU: 0xC4DA, offset: 0xC4DA, size: 0x8, addend: 0x0, symName: __ZNSt3__16__moveB7v160006INS_17_ClassicAlgPolicyENS_16reverse_iteratorIPiEES4_S4_EENS_4pairIT0_T2_EES6_T1_S7_, symObjAddr: 0x3D7C, symBinAddr: 0x100007A18, symSize: 0x64 }
  - { offsetInCU: 0xC546, offset: 0xC546, size: 0x8, addend: 0x0, symName: __ZNSt3__123__dispatch_copy_or_moveB7v160006INS_17_ClassicAlgPolicyENS_11__move_loopIS1_EENS_14__move_trivialENS_16reverse_iteratorIPiEES7_S7_EENS_4pairIT2_T4_EES9_T3_SA_, symObjAddr: 0x3DE0, symBinAddr: 0x100007A7C, symSize: 0x64 }
  - { offsetInCU: 0xC5C4, offset: 0xC5C4, size: 0x8, addend: 0x0, symName: __ZNSt3__121__unwrap_and_dispatchB7v160006INS_10__overloadINS_11__move_loopINS_17_ClassicAlgPolicyEEENS_14__move_trivialEEENS_16reverse_iteratorIPiEES9_S9_Li0EEENS_4pairIT0_T2_EESB_T1_SC_, symObjAddr: 0x3E44, symBinAddr: 0x100007AE0, symSize: 0x12C }
  - { offsetInCU: 0xC654, offset: 0xC654, size: 0x8, addend: 0x0, symName: __ZNSt3__114__unwrap_rangeB7v160006INS_16reverse_iteratorIPiEES3_EENS_4pairIT0_S5_EET_S7_, symObjAddr: 0x3F70, symBinAddr: 0x100007C0C, symSize: 0x84 }
  - { offsetInCU: 0xC7CF, offset: 0xC7CF, size: 0x8, addend: 0x0, symName: __ZNSt3__113__unwrap_iterB7v160006INS_16reverse_iteratorIPiEENS_18__unwrap_iter_implIS3_Lb0EEELi0EEEDTclsrT0_8__unwrapclsr3stdE7declvalIT_EEEES7_, symObjAddr: 0x4094, symBinAddr: 0x100007D30, symSize: 0x44 }
  - { offsetInCU: 0xC813, offset: 0xC813, size: 0x8, addend: 0x0, symName: __ZNSt3__19make_pairB7v160006INS_16reverse_iteratorIPiEES3_EENS_4pairINS_18__unwrap_ref_decayIT_E4typeENS5_IT0_E4typeEEEOS6_OS9_, symObjAddr: 0x40D8, symBinAddr: 0x100007D74, symSize: 0x38 }
  - { offsetInCU: 0xC862, offset: 0xC862, size: 0x8, addend: 0x0, symName: __ZNSt3__114__rewrap_rangeB7v160006INS_16reverse_iteratorIPiEES3_EET_S4_T0_, symObjAddr: 0x4110, symBinAddr: 0x100007DAC, symSize: 0x5C }
  - { offsetInCU: 0xC8AE, offset: 0xC8AE, size: 0x8, addend: 0x0, symName: __ZNSt3__113__rewrap_iterB7v160006INS_16reverse_iteratorIPiEES3_NS_18__unwrap_iter_implIS3_Lb0EEEEET_S6_T0_, symObjAddr: 0x416C, symBinAddr: 0x100007E08, symSize: 0x74 }
  - { offsetInCU: 0xC903, offset: 0xC903, size: 0x8, addend: 0x0, symName: __ZNSt3__1neB7v160006IPiS1_EEbRKNS_16reverse_iteratorIT_EERKNS2_IT0_EE, symObjAddr: 0x41E0, symBinAddr: 0x100007E7C, symSize: 0x48 }
  - { offsetInCU: 0xCA01, offset: 0xCA01, size: 0x8, addend: 0x0, symName: __ZNSt3__119__libcpp_deallocateB7v160006EPvmm, symObjAddr: 0x45D8, symBinAddr: 0x100008274, symSize: 0x60 }
  - { offsetInCU: 0xCA66, offset: 0xCA66, size: 0x8, addend: 0x0, symName: __ZNSt3__127__do_deallocate_handle_sizeB7v160006IJSt11align_val_tEEEvPvmDpT_, symObjAddr: 0x4638, symBinAddr: 0x1000082D4, symSize: 0x30 }
  - { offsetInCU: 0xCAB9, offset: 0xCAB9, size: 0x8, addend: 0x0, symName: __ZNSt3__127__do_deallocate_handle_sizeB7v160006IJEEEvPvmDpT_, symObjAddr: 0x4668, symBinAddr: 0x100008304, symSize: 0x28 }
  - { offsetInCU: 0xCAF7, offset: 0xCAF7, size: 0x8, addend: 0x0, symName: __ZNSt3__124__libcpp_operator_deleteB7v160006IJPvSt11align_val_tEEEvDpT_, symObjAddr: 0x4690, symBinAddr: 0x10000832C, symSize: 0x2C }
  - { offsetInCU: 0xCB40, offset: 0xCB40, size: 0x8, addend: 0x0, symName: __ZNSt3__124__libcpp_operator_deleteB7v160006IJPvEEEvDpT_, symObjAddr: 0x46BC, symBinAddr: 0x100008358, symSize: 0x24 }
  - { offsetInCU: 0xCB75, offset: 0xCB75, size: 0x8, addend: 0x0, symName: __ZNSt3__118__debug_db_erase_cB7v160006INS_6vectorIiNS_9allocatorIiEEEEEEvPT_, symObjAddr: 0x48E8, symBinAddr: 0x100008584, symSize: 0x10 }
  - { offsetInCU: 0xCBD9, offset: 0xCBD9, size: 0x8, addend: 0x0, symName: __ZNSt3__115allocate_sharedB7v160006I9MemorySetNS_9allocatorIS1_EEJEvEENS_10shared_ptrIT_EERKT0_DpOT1_, symObjAddr: 0x4CD0, symBinAddr: 0x10000896C, symSize: 0x90 }
  - { offsetInCU: 0xD277, offset: 0xD277, size: 0x8, addend: 0x0, symName: __ZNSt3__14swapB7v160006IPPiEENS_9enable_ifIXaasr21is_move_constructibleIT_EE5valuesr18is_move_assignableIS4_EE5valueEvE4typeERS4_S7_, symObjAddr: 0x6C68, symBinAddr: 0x10000A904, symSize: 0x3C }
  - { offsetInCU: 0xD2C8, offset: 0xD2C8, size: 0x8, addend: 0x0, symName: __ZNSt3__14moveB7v160006IPPiS2_EET0_T_S4_S3_, symObjAddr: 0x6D98, symBinAddr: 0x10000AA34, symSize: 0x40 }
  - { offsetInCU: 0xD33E, offset: 0xD33E, size: 0x8, addend: 0x0, symName: __ZNSt3__112__to_addressB7v160006IPiEEPT_S3_, symObjAddr: 0x6F3C, symBinAddr: 0x10000ABD8, symSize: 0x14 }
  - { offsetInCU: 0xD373, offset: 0xD373, size: 0x8, addend: 0x0, symName: __ZNSt3__16__moveB7v160006INS_17_ClassicAlgPolicyEPPiS3_S3_EENS_4pairIT0_T2_EES5_T1_S6_, symObjAddr: 0x6F50, symBinAddr: 0x10000ABEC, symSize: 0x44 }
  - { offsetInCU: 0xD3DF, offset: 0xD3DF, size: 0x8, addend: 0x0, symName: __ZNSt3__123__dispatch_copy_or_moveB7v160006INS_17_ClassicAlgPolicyENS_11__move_loopIS1_EENS_14__move_trivialEPPiS6_S6_EENS_4pairIT2_T4_EES8_T3_S9_, symObjAddr: 0x6F94, symBinAddr: 0x10000AC30, symSize: 0x44 }
  - { offsetInCU: 0xD45D, offset: 0xD45D, size: 0x8, addend: 0x0, symName: __ZNSt3__121__unwrap_and_dispatchB7v160006INS_10__overloadINS_11__move_loopINS_17_ClassicAlgPolicyEEENS_14__move_trivialEEEPPiS8_S8_Li0EEENS_4pairIT0_T2_EESA_T1_SB_, symObjAddr: 0x6FD8, symBinAddr: 0x10000AC74, symSize: 0xB4 }
  - { offsetInCU: 0xD4EB, offset: 0xD4EB, size: 0x8, addend: 0x0, symName: __ZNSt3__114__unwrap_rangeB7v160006IPPiS2_EENS_4pairIT0_S4_EET_S6_, symObjAddr: 0x708C, symBinAddr: 0x10000AD28, symSize: 0x60 }
  - { offsetInCU: 0xD6AF, offset: 0xD6AF, size: 0x8, addend: 0x0, symName: __ZNSt3__113__unwrap_iterB7v160006IPPiNS_18__unwrap_iter_implIS2_Lb1EEELi0EEEDTclsrT0_8__unwrapclsr3stdE7declvalIT_EEEES6_, symObjAddr: 0x7134, symBinAddr: 0x10000ADD0, symSize: 0x24 }
  - { offsetInCU: 0xD6F3, offset: 0xD6F3, size: 0x8, addend: 0x0, symName: __ZNSt3__19make_pairB7v160006IPPiS2_EENS_4pairINS_18__unwrap_ref_decayIT_E4typeENS4_IT0_E4typeEEEOS5_OS8_, symObjAddr: 0x7158, symBinAddr: 0x10000ADF4, symSize: 0x38 }
  - { offsetInCU: 0xD742, offset: 0xD742, size: 0x8, addend: 0x0, symName: __ZNSt3__114__rewrap_rangeB7v160006IPPiS2_EET_S3_T0_, symObjAddr: 0x7190, symBinAddr: 0x10000AE2C, symSize: 0x2C }
  - { offsetInCU: 0xD78E, offset: 0xD78E, size: 0x8, addend: 0x0, symName: __ZNSt3__113__rewrap_iterB7v160006IPPiS2_NS_18__unwrap_iter_implIS2_Lb1EEEEET_S5_T0_, symObjAddr: 0x71BC, symBinAddr: 0x10000AE58, symSize: 0x3C }
  - { offsetInCU: 0xD7E3, offset: 0xD7E3, size: 0x8, addend: 0x0, symName: __ZNSt3__119__copy_trivial_implB7v160006IPiS1_EENS_4pairIPT_PT0_EES4_S4_S6_, symObjAddr: 0x71F8, symBinAddr: 0x10000AE94, symSize: 0x84 }
  - { offsetInCU: 0xD84B, offset: 0xD84B, size: 0x8, addend: 0x0, symName: __ZNSt3__19make_pairB7v160006IRPPiS2_EENS_4pairINS_18__unwrap_ref_decayIT_E4typeENS5_IT0_E4typeEEEOS6_OS9_, symObjAddr: 0x727C, symBinAddr: 0x10000AF18, symSize: 0x38 }
  - { offsetInCU: 0xD8ED, offset: 0xD8ED, size: 0x8, addend: 0x0, symName: __ZNSt3__18distanceB7v160006INS_13move_iteratorIPPiEEEENS_15iterator_traitsIT_E15difference_typeES6_S6_, symObjAddr: 0x7408, symBinAddr: 0x10000B0A4, symSize: 0x3C }
  - { offsetInCU: 0xD930, offset: 0xD930, size: 0x8, addend: 0x0, symName: __ZNSt3__110__distanceB7v160006INS_13move_iteratorIPPiEEEENS_15iterator_traitsIT_E15difference_typeES6_S6_NS_26random_access_iterator_tagE, symObjAddr: 0x7540, symBinAddr: 0x10000B1DC, symSize: 0x30 }
  - { offsetInCU: 0xD97D, offset: 0xD97D, size: 0x8, addend: 0x0, symName: __ZNSt3__1miB7v160006IPPiS2_EEDTmicldtfp_4baseEcldtfp0_4baseEERKNS_13move_iteratorIT_EERKNS4_IT0_EE, symObjAddr: 0x7570, symBinAddr: 0x10000B20C, symSize: 0x48 }
  - { offsetInCU: 0xD9CC, offset: 0xD9CC, size: 0x8, addend: 0x0, symName: __ZNSt3__113move_backwardB7v160006IPPiS2_EET0_T_S4_S3_, symObjAddr: 0x7744, symBinAddr: 0x10000B3E0, symSize: 0x40 }
  - { offsetInCU: 0xDA26, offset: 0xDA26, size: 0x8, addend: 0x0, symName: __ZNSt3__115__move_backwardB7v160006INS_17_ClassicAlgPolicyEPPiS3_S3_EENS_4pairIT0_T2_EES5_T1_S6_, symObjAddr: 0x7784, symBinAddr: 0x10000B420, symSize: 0x44 }
  - { offsetInCU: 0xDA92, offset: 0xDA92, size: 0x8, addend: 0x0, symName: __ZNSt3__123__dispatch_copy_or_moveB7v160006INS_17_ClassicAlgPolicyENS_20__move_backward_loopIS1_EENS_23__move_backward_trivialEPPiS6_S6_EENS_4pairIT2_T4_EES8_T3_S9_, symObjAddr: 0x77C8, symBinAddr: 0x10000B464, symSize: 0x44 }
  - { offsetInCU: 0xDB10, offset: 0xDB10, size: 0x8, addend: 0x0, symName: __ZNSt3__121__unwrap_and_dispatchB7v160006INS_10__overloadINS_20__move_backward_loopINS_17_ClassicAlgPolicyEEENS_23__move_backward_trivialEEEPPiS8_S8_Li0EEENS_4pairIT0_T2_EESA_T1_SB_, symObjAddr: 0x780C, symBinAddr: 0x10000B4A8, symSize: 0xB4 }
  - { offsetInCU: 0xDBE4, offset: 0xDBE4, size: 0x8, addend: 0x0, symName: __ZNSt3__128__copy_backward_trivial_implB7v160006IPiS1_EENS_4pairIPT_PT0_EES4_S4_S6_, symObjAddr: 0x7908, symBinAddr: 0x10000B5A4, symSize: 0x94 }
  - { offsetInCU: 0xDC4C, offset: 0xDC4C, size: 0x8, addend: 0x0, symName: __ZNSt3__19make_pairB7v160006IRPPiS3_EENS_4pairINS_18__unwrap_ref_decayIT_E4typeENS5_IT0_E4typeEEEOS6_OS9_, symObjAddr: 0x799C, symBinAddr: 0x10000B638, symSize: 0x38 }
  - { offsetInCU: 0xDC9B, offset: 0xDC9B, size: 0x8, addend: 0x0, symName: __ZNSt3__119__allocate_at_leastB7v160006INS_9allocatorIPiEEEENS_19__allocation_resultINS_16allocator_traitsIT_E7pointerEEERS6_m, symObjAddr: 0x7B8C, symBinAddr: 0x10000B828, symSize: 0x40 }
  - { offsetInCU: 0xDCDE, offset: 0xDCDE, size: 0x8, addend: 0x0, symName: __ZNSt3__1neB7v160006ERKNS_16__deque_iteratorIiPiRiPS1_lLl1024EEES6_, symObjAddr: 0x87A4, symBinAddr: 0x10000C440, symSize: 0x34 }
  - { offsetInCU: 0xDD1B, offset: 0xDD1B, size: 0x8, addend: 0x0, symName: __ZNSt3__1eqB7v160006ERKNS_16__deque_iteratorIiPiRiPS1_lLl1024EEES6_, symObjAddr: 0x8848, symBinAddr: 0x10000C4E4, symSize: 0x30 }
  - { offsetInCU: 0xDD8B, offset: 0xDD8B, size: 0x8, addend: 0x0, symName: __ZNSt3__111make_sharedB7v160006I17DivisionOperationJEvEENS_10shared_ptrIT_EEDpOT0_, symObjAddr: 0x8CFC, symBinAddr: 0x10000C998, symSize: 0x38 }
  - { offsetInCU: 0xDFD5, offset: 0xDFD5, size: 0x8, addend: 0x0, symName: __ZNSt3__111make_sharedB7v160006I12MemoryRecallJR9MemorySetEvEENS_10shared_ptrIT_EEDpOT0_, symObjAddr: 0x8D94, symBinAddr: 0x10000CA30, symSize: 0x40 }
  - { offsetInCU: 0xE018, offset: 0xE018, size: 0x8, addend: 0x0, symName: __ZNSt3__115allocate_sharedB7v160006I17DivisionOperationNS_9allocatorIS1_EEJEvEENS_10shared_ptrIT_EERKT0_DpOT1_, symObjAddr: 0x8E80, symBinAddr: 0x10000CB1C, symSize: 0x90 }
  - { offsetInCU: 0xE344, offset: 0xE344, size: 0x8, addend: 0x0, symName: __ZNSt3__115allocate_sharedB7v160006I12MemoryRecallNS_9allocatorIS1_EEJR9MemorySetEvEENS_10shared_ptrIT_EERKT0_DpOT1_, symObjAddr: 0x9A40, symBinAddr: 0x10000D6DC, symSize: 0x98 }
  - { offsetInCU: 0xE6B8, offset: 0xE6B8, size: 0x8, addend: 0x0, symName: __ZNSt3__19use_facetB7v160006INS_5ctypeIcEEEERKT_RKNS_6localeE, symObjAddr: 0xAB98, symBinAddr: 0x10000E834, symSize: 0x2C }
  - { offsetInCU: 0xEA98, offset: 0xEA98, size: 0x8, addend: 0x0, symName: __ZNSt3__125__debug_db_invalidate_allB7v160006INS_12basic_stringIcNS_11char_traitsIcEENS_9allocatorIcEEEEEEvPT_, symObjAddr: 0xAE6C, symBinAddr: 0x10000EB08, symSize: 0x10 }
  - { offsetInCU: 0xF1C9, offset: 0xF1C9, size: 0x8, addend: 0x0, symName: __ZSt28__throw_bad_array_new_lengthB7v160006v, symObjAddr: 0x1BF8, symBinAddr: 0x100005894, symSize: 0x34 }
  - { offsetInCU: 0xFEBA, offset: 0xFEBA, size: 0x8, addend: 0x0, symName: __ZNSt3__16vectorIiNS_9allocatorIiEEE26__swap_out_circular_bufferERNS_14__split_bufferIiRS2_EE, symObjAddr: 0x3258, symBinAddr: 0x100006EF4, symSize: 0x118 }
  - { offsetInCU: 0x124FA, offset: 0x124FA, size: 0x8, addend: 0x0, symName: __Z16buildInterpreterR17CalculationEngine, symObjAddr: 0x0, symBinAddr: 0x100003C9C, symSize: 0x48 }
  - { offsetInCU: 0x12579, offset: 0x12579, size: 0x8, addend: 0x0, symName: __ZNSt3__110shared_ptrI16InputInterpreterEC1B7v160006I19AdvancedInterpretervEEONS0_IT_EE, symObjAddr: 0x88, symBinAddr: 0x100003D24, symSize: 0x34 }
  - { offsetInCU: 0x125BC, offset: 0x125BC, size: 0x8, addend: 0x0, symName: __ZNSt3__110shared_ptrI19AdvancedInterpreterED1B7v160006Ev, symObjAddr: 0xBC, symBinAddr: 0x100003D58, symSize: 0x2C }
  - { offsetInCU: 0x125E6, offset: 0x125E6, size: 0x8, addend: 0x0, symName: _main, symObjAddr: 0xE8, symBinAddr: 0x100003D84, symSize: 0x1AC }
  - { offsetInCU: 0x1262C, offset: 0x1262C, size: 0x8, addend: 0x0, symName: __ZNSt3__112basic_stringIcNS_11char_traitsIcEENS_9allocatorIcEEEC1B7v160006Ev, symObjAddr: 0x294, symBinAddr: 0x100003F30, symSize: 0x2C }
  - { offsetInCU: 0x12656, offset: 0x12656, size: 0x8, addend: 0x0, symName: __ZN17CalculationEngineC1Ev, symObjAddr: 0x2C0, symBinAddr: 0x100003F5C, symSize: 0x2C }
  - { offsetInCU: 0x126FF, offset: 0x126FF, size: 0x8, addend: 0x0, symName: __ZNKSt3__19basic_iosIcNS_11char_traitsIcEEEcvbB7v160006Ev, symObjAddr: 0x608, symBinAddr: 0x1000042A4, symSize: 0x2C }
  - { offsetInCU: 0x12725, offset: 0x12725, size: 0x8, addend: 0x0, symName: __ZNKSt3__110shared_ptrI16InputInterpreterEptB7v160006Ev, symObjAddr: 0x6E0, symBinAddr: 0x10000437C, symSize: 0x18 }
  - { offsetInCU: 0x1274B, offset: 0x1274B, size: 0x8, addend: 0x0, symName: __ZN16InputInterpreter9interpretENSt3__112basic_stringIcNS0_11char_traitsIcEENS0_9allocatorIcEEEE, symObjAddr: 0x6F8, symBinAddr: 0x100004394, symSize: 0x160 }
  - { offsetInCU: 0x1279E, offset: 0x1279E, size: 0x8, addend: 0x0, symName: __ZN17CalculationEngine16getCurrentResultEv, symObjAddr: 0x858, symBinAddr: 0x1000044F4, symSize: 0x18 }
  - { offsetInCU: 0x127C4, offset: 0x127C4, size: 0x8, addend: 0x0, symName: __ZNSt3__113basic_ostreamIcNS_11char_traitsIcEEElsB7v160006EPFRS3_S4_E, symObjAddr: 0x870, symBinAddr: 0x10000450C, symSize: 0x2C }
  - { offsetInCU: 0x127F8, offset: 0x127F8, size: 0x8, addend: 0x0, symName: __ZNSt3__110shared_ptrI16InputInterpreterED1B7v160006Ev, symObjAddr: 0x8F4, symBinAddr: 0x100004590, symSize: 0x2C }
  - { offsetInCU: 0x12822, offset: 0x12822, size: 0x8, addend: 0x0, symName: __ZN17CalculationEngineD1Ev, symObjAddr: 0x920, symBinAddr: 0x1000045BC, symSize: 0x2C }
  - { offsetInCU: 0x1284E, offset: 0x1284E, size: 0x8, addend: 0x0, symName: __ZN17CalculationEngineC2Ev, symObjAddr: 0x94C, symBinAddr: 0x1000045E8, symSize: 0x38 }
  - { offsetInCU: 0x12878, offset: 0x12878, size: 0x8, addend: 0x0, symName: __ZNSt3__110shared_ptrI9OperationEC1B7v160006EDn, symObjAddr: 0x984, symBinAddr: 0x100004620, symSize: 0x34 }
  - { offsetInCU: 0x128AD, offset: 0x128AD, size: 0x8, addend: 0x0, symName: __ZNSt3__110shared_ptrI9OperationEC2B7v160006EDn, symObjAddr: 0x9B8, symBinAddr: 0x100004654, symSize: 0x20 }
  - { offsetInCU: 0x129C8, offset: 0x129C8, size: 0x8, addend: 0x0, symName: __ZNSt3__119basic_istringstreamIcNS_11char_traitsIcEENS_9allocatorIcEEEC1B7v160006ERKNS_12basic_stringIcS2_S4_EEj, symObjAddr: 0x9D8, symBinAddr: 0x100004674, symSize: 0xFC }
  - { offsetInCU: 0x12A10, offset: 0x12A10, size: 0x8, addend: 0x0, symName: __ZN17CalculationEngine10pushNumberEi, symObjAddr: 0xAD4, symBinAddr: 0x100004770, symSize: 0xB4 }
  - { offsetInCU: 0x12A44, offset: 0x12A44, size: 0x8, addend: 0x0, symName: __ZN17CalculationEngine13pushOperationENSt3__110shared_ptrI9OperationEE, symObjAddr: 0xB88, symBinAddr: 0x100004824, symSize: 0x94 }
  - { offsetInCU: 0x12A79, offset: 0x12A79, size: 0x8, addend: 0x0, symName: __ZNSt3__110shared_ptrI9OperationED1B7v160006Ev, symObjAddr: 0xC1C, symBinAddr: 0x1000048B8, symSize: 0x2C }
  - { offsetInCU: 0x12AA8, offset: 0x12AA8, size: 0x8, addend: 0x0, symName: __ZNSt3__119basic_istringstreamIcNS_11char_traitsIcEENS_9allocatorIcEEED1Ev, symObjAddr: 0xC48, symBinAddr: 0x1000048E4, symSize: 0x40 }
  - { offsetInCU: 0x12AD5, offset: 0x12AD5, size: 0x8, addend: 0x0, symName: __ZNSt3__19basic_iosIcNS_11char_traitsIcEEEC2B7v160006Ev, symObjAddr: 0xC88, symBinAddr: 0x100004924, symSize: 0x44 }
  - { offsetInCU: 0x12AFF, offset: 0x12AFF, size: 0x8, addend: 0x0, symName: __ZNSt3__113basic_istreamIcNS_11char_traitsIcEEEC2B7v160006EPNS_15basic_streambufIcS2_EE, symObjAddr: 0xCCC, symBinAddr: 0x100004968, symSize: 0x64 }
  - { offsetInCU: 0x12B44, offset: 0x12B44, size: 0x8, addend: 0x0, symName: __ZNSt3__115basic_stringbufIcNS_11char_traitsIcEENS_9allocatorIcEEEC1B7v160006ERKNS_12basic_stringIcS2_S4_EEj, symObjAddr: 0xD30, symBinAddr: 0x1000049CC, symSize: 0x3C }
  - { offsetInCU: 0x12B8A, offset: 0x12B8A, size: 0x8, addend: 0x0, symName: __ZNSt3__18ios_baseC2B7v160006Ev, symObjAddr: 0xD6C, symBinAddr: 0x100004A08, symSize: 0x24 }
  - { offsetInCU: 0x12BB4, offset: 0x12BB4, size: 0x8, addend: 0x0, symName: __ZNSt3__19basic_iosIcNS_11char_traitsIcEEE4initB7v160006EPNS_15basic_streambufIcS2_EE, symObjAddr: 0xD90, symBinAddr: 0x100004A2C, symSize: 0x44 }
  - { offsetInCU: 0x12BEB, offset: 0x12BEB, size: 0x8, addend: 0x0, symName: __ZNSt3__111char_traitsIcE3eofEv, symObjAddr: 0xDD4, symBinAddr: 0x100004A70, symSize: 0x8 }
  - { offsetInCU: 0x12BFF, offset: 0x12BFF, size: 0x8, addend: 0x0, symName: __ZNSt3__115basic_stringbufIcNS_11char_traitsIcEENS_9allocatorIcEEEC2B7v160006ERKNS_12basic_stringIcS2_S4_EEj, symObjAddr: 0xDDC, symBinAddr: 0x100004A78, symSize: 0xB4 }
  - { offsetInCU: 0x12C45, offset: 0x12C45, size: 0x8, addend: 0x0, symName: __ZNKSt3__112basic_stringIcNS_11char_traitsIcEENS_9allocatorIcEEE13get_allocatorB7v160006Ev, symObjAddr: 0xE90, symBinAddr: 0x100004B2C, symSize: 0x24 }
  - { offsetInCU: 0x12C6B, offset: 0x12C6B, size: 0x8, addend: 0x0, symName: __ZNSt3__112basic_stringIcNS_11char_traitsIcEENS_9allocatorIcEEEC1B7v160006ERKS4_, symObjAddr: 0xEB4, symBinAddr: 0x100004B50, symSize: 0x34 }
  - { offsetInCU: 0x12CA4, offset: 0x12CA4, size: 0x8, addend: 0x0, symName: __ZNKSt3__112basic_stringIcNS_11char_traitsIcEENS_9allocatorIcEEE7__allocB7v160006Ev, symObjAddr: 0xEE8, symBinAddr: 0x100004B84, symSize: 0x24 }
  - { offsetInCU: 0x12CCA, offset: 0x12CCA, size: 0x8, addend: 0x0, symName: __ZNKSt3__117__compressed_pairINS_12basic_stringIcNS_11char_traitsIcEENS_9allocatorIcEEE5__repES5_E6secondB7v160006Ev, symObjAddr: 0xF0C, symBinAddr: 0x100004BA8, symSize: 0x24 }
  - { offsetInCU: 0x12CF0, offset: 0x12CF0, size: 0x8, addend: 0x0, symName: __ZNKSt3__122__compressed_pair_elemINS_9allocatorIcEELi1ELb1EE5__getB7v160006Ev, symObjAddr: 0xF30, symBinAddr: 0x100004BCC, symSize: 0x14 }
  - { offsetInCU: 0x12D16, offset: 0x12D16, size: 0x8, addend: 0x0, symName: __ZNSt3__112basic_stringIcNS_11char_traitsIcEENS_9allocatorIcEEEC2B7v160006ERKS4_, symObjAddr: 0xF44, symBinAddr: 0x100004BE0, symSize: 0x58 }
  - { offsetInCU: 0x12D55, offset: 0x12D55, size: 0x8, addend: 0x0, symName: __ZNSt3__117__compressed_pairINS_12basic_stringIcNS_11char_traitsIcEENS_9allocatorIcEEE5__repES5_EC1B7v160006INS_18__default_init_tagERKS5_EEOT_OT0_, symObjAddr: 0xF9C, symBinAddr: 0x100004C38, symSize: 0x3C }
  - { offsetInCU: 0x12DAD, offset: 0x12DAD, size: 0x8, addend: 0x0, symName: __ZNSt3__112basic_stringIcNS_11char_traitsIcEENS_9allocatorIcEEE14__default_initB7v160006Ev, symObjAddr: 0xFF4, symBinAddr: 0x100004C90, symSize: 0x40 }
  - { offsetInCU: 0x12DD3, offset: 0x12DD3, size: 0x8, addend: 0x0, symName: __ZNSt3__117__compressed_pairINS_12basic_stringIcNS_11char_traitsIcEENS_9allocatorIcEEE5__repES5_EC2B7v160006INS_18__default_init_tagERKS5_EEOT_OT0_, symObjAddr: 0x1034, symBinAddr: 0x100004CD0, symSize: 0x40 }
  - { offsetInCU: 0x12E2B, offset: 0x12E2B, size: 0x8, addend: 0x0, symName: __ZNSt3__122__compressed_pair_elemINS_12basic_stringIcNS_11char_traitsIcEENS_9allocatorIcEEE5__repELi0ELb0EEC2B7v160006ENS_18__default_init_tagE, symObjAddr: 0x1074, symBinAddr: 0x100004D10, symSize: 0x14 }
  - { offsetInCU: 0x12E5F, offset: 0x12E5F, size: 0x8, addend: 0x0, symName: __ZNSt3__122__compressed_pair_elemINS_9allocatorIcEELi1ELb1EEC2B7v160006IRKS2_vEEOT_, symObjAddr: 0x1088, symBinAddr: 0x100004D24, symSize: 0x18 }
  - { offsetInCU: 0x12EA1, offset: 0x12EA1, size: 0x8, addend: 0x0, symName: __ZNSt3__117__compressed_pairINS_12basic_stringIcNS_11char_traitsIcEENS_9allocatorIcEEE5__repES5_E5firstB7v160006Ev, symObjAddr: 0x10A0, symBinAddr: 0x100004D3C, symSize: 0x24 }
  - { offsetInCU: 0x12EC7, offset: 0x12EC7, size: 0x8, addend: 0x0, symName: __ZNSt3__122__compressed_pair_elemINS_12basic_stringIcNS_11char_traitsIcEENS_9allocatorIcEEE5__repELi0ELb0EE5__getB7v160006Ev, symObjAddr: 0x10C4, symBinAddr: 0x100004D60, symSize: 0x14 }
  - { offsetInCU: 0x12EED, offset: 0x12EED, size: 0x8, addend: 0x0, symName: __ZNKSt3__110shared_ptrI9OperationEcvbB7v160006Ev, symObjAddr: 0x10D8, symBinAddr: 0x100004D74, symSize: 0x30 }
  - { offsetInCU: 0x12F13, offset: 0x12F13, size: 0x8, addend: 0x0, symName: __ZNKSt3__110shared_ptrI9OperationEptB7v160006Ev, symObjAddr: 0x1108, symBinAddr: 0x100004DA4, symSize: 0x18 }
  - { offsetInCU: 0x12F39, offset: 0x12F39, size: 0x8, addend: 0x0, symName: __ZNSt3__110shared_ptrI9OperationE5resetB7v160006Ev, symObjAddr: 0x1120, symBinAddr: 0x100004DBC, symSize: 0x44 }
  - { offsetInCU: 0x12F5F, offset: 0x12F5F, size: 0x8, addend: 0x0, symName: __ZNKSt3__110shared_ptrI9OperationE3getB7v160006Ev, symObjAddr: 0x1164, symBinAddr: 0x100004E00, symSize: 0x18 }
  - { offsetInCU: 0x12F85, offset: 0x12F85, size: 0x8, addend: 0x0, symName: __ZNSt3__110shared_ptrI9OperationEC1B7v160006Ev, symObjAddr: 0x117C, symBinAddr: 0x100004E18, symSize: 0x2C }
  - { offsetInCU: 0x12FAF, offset: 0x12FAF, size: 0x8, addend: 0x0, symName: __ZNSt3__110shared_ptrI9OperationE4swapB7v160006ERS2_, symObjAddr: 0x11A8, symBinAddr: 0x100004E44, symSize: 0x44 }
  - { offsetInCU: 0x12FE4, offset: 0x12FE4, size: 0x8, addend: 0x0, symName: __ZNSt3__110shared_ptrI9OperationEC2B7v160006Ev, symObjAddr: 0x11EC, symBinAddr: 0x100004E88, symSize: 0x1C }
  - { offsetInCU: 0x1300E, offset: 0x1300E, size: 0x8, addend: 0x0, symName: __ZNSt3__110shared_ptrI9OperationEaSB7v160006ERKS2_, symObjAddr: 0x1280, symBinAddr: 0x100004F1C, symSize: 0x50 }
  - { offsetInCU: 0x13043, offset: 0x13043, size: 0x8, addend: 0x0, symName: __ZNSt3__110shared_ptrI9OperationEC1B7v160006ERKS2_, symObjAddr: 0x12D0, symBinAddr: 0x100004F6C, symSize: 0x34 }
  - { offsetInCU: 0x1307C, offset: 0x1307C, size: 0x8, addend: 0x0, symName: __ZNSt3__110shared_ptrI9OperationEC2B7v160006ERKS2_, symObjAddr: 0x1304, symBinAddr: 0x100004FA0, symSize: 0x70 }
  - { offsetInCU: 0x130B5, offset: 0x130B5, size: 0x8, addend: 0x0, symName: __ZNSt3__119__shared_weak_count12__add_sharedB7v160006Ev, symObjAddr: 0x1374, symBinAddr: 0x100005010, symSize: 0x24 }
  - { offsetInCU: 0x130DB, offset: 0x130DB, size: 0x8, addend: 0x0, symName: __ZNSt3__114__shared_count12__add_sharedB7v160006Ev, symObjAddr: 0x1398, symBinAddr: 0x100005034, symSize: 0x28 }
  - { offsetInCU: 0x13101, offset: 0x13101, size: 0x8, addend: 0x0, symName: __ZNSt3__110shared_ptrI9OperationED2B7v160006Ev, symObjAddr: 0x13F0, symBinAddr: 0x10000508C, symSize: 0x54 }
  - { offsetInCU: 0x1312B, offset: 0x1312B, size: 0x8, addend: 0x0, symName: __ZNSt3__119__shared_weak_count16__release_sharedB7v160006Ev, symObjAddr: 0x1444, symBinAddr: 0x1000050E0, symSize: 0x3C }
  - { offsetInCU: 0x13151, offset: 0x13151, size: 0x8, addend: 0x0, symName: __ZNSt3__114__shared_count16__release_sharedB7v160006Ev, symObjAddr: 0x1480, symBinAddr: 0x10000511C, symSize: 0x7C }
  - { offsetInCU: 0x13177, offset: 0x13177, size: 0x8, addend: 0x0, symName: __ZNSt3__119basic_istringstreamIcNS_11char_traitsIcEENS_9allocatorIcEEED2Ev, symObjAddr: 0x152C, symBinAddr: 0x1000051C8, symSize: 0x64 }
  - { offsetInCU: 0x131B1, offset: 0x131B1, size: 0x8, addend: 0x0, symName: __ZTv0_n24_NSt3__119basic_istringstreamIcNS_11char_traitsIcEENS_9allocatorIcEEED1Ev, symObjAddr: 0x1590, symBinAddr: 0x10000522C, symSize: 0x28 }
  - { offsetInCU: 0x131CD, offset: 0x131CD, size: 0x8, addend: 0x0, symName: __ZNSt3__115basic_stringbufIcNS_11char_traitsIcEENS_9allocatorIcEEED1Ev, symObjAddr: 0x15B8, symBinAddr: 0x100005254, symSize: 0x2C }
  - { offsetInCU: 0x131FA, offset: 0x131FA, size: 0x8, addend: 0x0, symName: __ZNSt3__115basic_stringbufIcNS_11char_traitsIcEENS_9allocatorIcEEED2Ev, symObjAddr: 0x15E4, symBinAddr: 0x100005280, symSize: 0x48 }
  - { offsetInCU: 0x13227, offset: 0x13227, size: 0x8, addend: 0x0, symName: __ZN17CalculationEngineD2Ev, symObjAddr: 0x162C, symBinAddr: 0x1000052C8, symSize: 0x30 }
  - { offsetInCU: 0x13253, offset: 0x13253, size: 0x8, addend: 0x0, symName: __ZNKSt3__19basic_iosIcNS_11char_traitsIcEEE4failB7v160006Ev, symObjAddr: 0x165C, symBinAddr: 0x1000052F8, symSize: 0x28 }
  - { offsetInCU: 0x13279, offset: 0x13279, size: 0x8, addend: 0x0, symName: __ZNKSt3__18ios_base4failB7v160006Ev, symObjAddr: 0x1684, symBinAddr: 0x100005320, symSize: 0x28 }
  - { offsetInCU: 0x132A1, offset: 0x132A1, size: 0x8, addend: 0x0, symName: __ZNSt3__111char_traitsIcE6lengthEPKc, symObjAddr: 0x16AC, symBinAddr: 0x100005348, symSize: 0x34 }
  - { offsetInCU: 0x132C4, offset: 0x132C4, size: 0x8, addend: 0x0, symName: __ZNKSt3__112basic_stringIcNS_11char_traitsIcEENS_9allocatorIcEEE4sizeB7v160006Ev, symObjAddr: 0x16E0, symBinAddr: 0x10000537C, symSize: 0x54 }
  - { offsetInCU: 0x132EA, offset: 0x132EA, size: 0x8, addend: 0x0, symName: __ZNKSt3__112basic_stringIcNS_11char_traitsIcEENS_9allocatorIcEEE9__is_longB7v160006Ev, symObjAddr: 0x1758, symBinAddr: 0x1000053F4, symSize: 0x38 }
  - { offsetInCU: 0x13310, offset: 0x13310, size: 0x8, addend: 0x0, symName: __ZNKSt3__112basic_stringIcNS_11char_traitsIcEENS_9allocatorIcEEE15__get_long_sizeB7v160006Ev, symObjAddr: 0x1790, symBinAddr: 0x10000542C, symSize: 0x28 }
  - { offsetInCU: 0x13336, offset: 0x13336, size: 0x8, addend: 0x0, symName: __ZNKSt3__112basic_stringIcNS_11char_traitsIcEENS_9allocatorIcEEE16__get_short_sizeB7v160006Ev, symObjAddr: 0x17B8, symBinAddr: 0x100005454, symSize: 0x34 }
  - { offsetInCU: 0x1335C, offset: 0x1335C, size: 0x8, addend: 0x0, symName: __ZNKSt3__117__compressed_pairINS_12basic_stringIcNS_11char_traitsIcEENS_9allocatorIcEEE5__repES5_E5firstB7v160006Ev, symObjAddr: 0x17EC, symBinAddr: 0x100005488, symSize: 0x24 }
  - { offsetInCU: 0x13382, offset: 0x13382, size: 0x8, addend: 0x0, symName: __ZNKSt3__122__compressed_pair_elemINS_12basic_stringIcNS_11char_traitsIcEENS_9allocatorIcEEE5__repELi0ELb0EE5__getB7v160006Ev, symObjAddr: 0x1810, symBinAddr: 0x1000054AC, symSize: 0x14 }
  - { offsetInCU: 0x133A8, offset: 0x133A8, size: 0x8, addend: 0x0, symName: __ZNSt3__19allocatorI19AdvancedInterpreterEC1B7v160006Ev, symObjAddr: 0x18BC, symBinAddr: 0x100005558, symSize: 0x2C }
  - { offsetInCU: 0x13411, offset: 0x13411, size: 0x8, addend: 0x0, symName: __ZNSt3__118__allocation_guardINS_9allocatorINS_20__shared_ptr_emplaceI19AdvancedInterpreterNS1_IS3_EEEEEEEC1B7v160006IS4_EET_m, symObjAddr: 0x18E8, symBinAddr: 0x100005584, symSize: 0x34 }
  - { offsetInCU: 0x13460, offset: 0x13460, size: 0x8, addend: 0x0, symName: __ZNKSt3__118__allocation_guardINS_9allocatorINS_20__shared_ptr_emplaceI19AdvancedInterpreterNS1_IS3_EEEEEEE5__getB7v160006Ev, symObjAddr: 0x191C, symBinAddr: 0x1000055B8, symSize: 0x18 }
  - { offsetInCU: 0x13486, offset: 0x13486, size: 0x8, addend: 0x0, symName: __ZNSt3__120__shared_ptr_emplaceI19AdvancedInterpreterNS_9allocatorIS1_EEEC1B7v160006IJR17CalculationEngineEEES3_DpOT_, symObjAddr: 0x1934, symBinAddr: 0x1000055D0, symSize: 0x34 }
  - { offsetInCU: 0x134D9, offset: 0x134D9, size: 0x8, addend: 0x0, symName: __ZNSt3__118__allocation_guardINS_9allocatorINS_20__shared_ptr_emplaceI19AdvancedInterpreterNS1_IS3_EEEEEEE13__release_ptrB7v160006Ev, symObjAddr: 0x1968, symBinAddr: 0x100005604, symSize: 0x24 }
  - { offsetInCU: 0x1350D, offset: 0x1350D, size: 0x8, addend: 0x0, symName: __ZNSt3__110shared_ptrI19AdvancedInterpreterE27__create_with_control_blockB7v160006IS1_NS_20__shared_ptr_emplaceIS1_NS_9allocatorIS1_EEEEEES2_PT_PT0_, symObjAddr: 0x198C, symBinAddr: 0x100005628, symSize: 0xA4 }
  - { offsetInCU: 0x13562, offset: 0x13562, size: 0x8, addend: 0x0, symName: __ZNSt3__120__shared_ptr_emplaceI19AdvancedInterpreterNS_9allocatorIS1_EEE10__get_elemB7v160006Ev, symObjAddr: 0x1A30, symBinAddr: 0x1000056CC, symSize: 0x28 }
  - { offsetInCU: 0x13588, offset: 0x13588, size: 0x8, addend: 0x0, symName: __ZNSt3__118__allocation_guardINS_9allocatorINS_20__shared_ptr_emplaceI19AdvancedInterpreterNS1_IS3_EEEEEEED1B7v160006Ev, symObjAddr: 0x1A58, symBinAddr: 0x1000056F4, symSize: 0x2C }
  - { offsetInCU: 0x135B2, offset: 0x135B2, size: 0x8, addend: 0x0, symName: __ZNSt3__118__allocation_guardINS_9allocatorINS_20__shared_ptr_emplaceI19AdvancedInterpreterNS1_IS3_EEEEEEEC2B7v160006IS4_EET_m, symObjAddr: 0x1A84, symBinAddr: 0x100005720, symSize: 0x50 }
  - { offsetInCU: 0x13601, offset: 0x13601, size: 0x8, addend: 0x0, symName: __ZNSt3__19allocatorINS_20__shared_ptr_emplaceI19AdvancedInterpreterNS0_IS2_EEEEEC1B7v160006IS2_EERKNS0_IT_EE, symObjAddr: 0x1AD4, symBinAddr: 0x100005770, symSize: 0x34 }
  - { offsetInCU: 0x1363E, offset: 0x1363E, size: 0x8, addend: 0x0, symName: __ZNSt3__116allocator_traitsINS_9allocatorINS_20__shared_ptr_emplaceI19AdvancedInterpreterNS1_IS3_EEEEEEE8allocateB7v160006ERS6_m, symObjAddr: 0x1B08, symBinAddr: 0x1000057A4, symSize: 0x2C }
  - { offsetInCU: 0x13671, offset: 0x13671, size: 0x8, addend: 0x0, symName: __ZNSt3__19allocatorINS_20__shared_ptr_emplaceI19AdvancedInterpreterNS0_IS2_EEEEEC2B7v160006IS2_EERKNS0_IT_EE, symObjAddr: 0x1B34, symBinAddr: 0x1000057D0, symSize: 0x30 }
  - { offsetInCU: 0x136AE, offset: 0x136AE, size: 0x8, addend: 0x0, symName: __ZNSt3__116__non_trivial_ifILb1ENS_9allocatorINS_20__shared_ptr_emplaceI19AdvancedInterpreterNS1_IS3_EEEEEEEC2B7v160006Ev, symObjAddr: 0x1B64, symBinAddr: 0x100005800, symSize: 0x14 }
  - { offsetInCU: 0x136D8, offset: 0x136D8, size: 0x8, addend: 0x0, symName: __ZNSt3__19allocatorINS_20__shared_ptr_emplaceI19AdvancedInterpreterNS0_IS2_EEEEE8allocateB7v160006Em, symObjAddr: 0x1B78, symBinAddr: 0x100005814, symSize: 0x5C }
  - { offsetInCU: 0x13717, offset: 0x13717, size: 0x8, addend: 0x0, symName: __ZNSt3__116allocator_traitsINS_9allocatorINS_20__shared_ptr_emplaceI19AdvancedInterpreterNS1_IS3_EEEEEEE8max_sizeB7v160006IS6_vEEmRKS6_, symObjAddr: 0x1BD4, symBinAddr: 0x100005870, symSize: 0x24 }
  - { offsetInCU: 0x13745, offset: 0x13745, size: 0x8, addend: 0x0, symName: __ZNKSt3__19allocatorINS_20__shared_ptr_emplaceI19AdvancedInterpreterNS0_IS2_EEEEE8max_sizeB7v160006Ev, symObjAddr: 0x1C8C, symBinAddr: 0x100005928, symSize: 0x20 }
  - { offsetInCU: 0x1376B, offset: 0x1376B, size: 0x8, addend: 0x0, symName: __ZNSt3__120__shared_ptr_emplaceI19AdvancedInterpreterNS_9allocatorIS1_EEEC2B7v160006IJR17CalculationEngineEEES3_DpOT_, symObjAddr: 0x1D1C, symBinAddr: 0x1000059B8, symSize: 0xB8 }
  - { offsetInCU: 0x137BE, offset: 0x137BE, size: 0x8, addend: 0x0, symName: __ZNSt3__119__shared_weak_countC2B7v160006El, symObjAddr: 0x1DD4, symBinAddr: 0x100005A70, symSize: 0x54 }
  - { offsetInCU: 0x137F6, offset: 0x137F6, size: 0x8, addend: 0x0, symName: __ZNSt3__120__shared_ptr_emplaceI19AdvancedInterpreterNS_9allocatorIS1_EEE8_StorageC1B7v160006EOS3_, symObjAddr: 0x1E28, symBinAddr: 0x100005AC4, symSize: 0x34 }
  - { offsetInCU: 0x1382F, offset: 0x1382F, size: 0x8, addend: 0x0, symName: __ZN19AdvancedInterpreterC1ER17CalculationEngine, symObjAddr: 0x1E5C, symBinAddr: 0x100005AF8, symSize: 0x34 }
  - { offsetInCU: 0x13867, offset: 0x13867, size: 0x8, addend: 0x0, symName: __ZNSt3__120__shared_ptr_emplaceI19AdvancedInterpreterNS_9allocatorIS1_EEE8_StorageD1B7v160006Ev, symObjAddr: 0x1E90, symBinAddr: 0x100005B2C, symSize: 0x2C }
  - { offsetInCU: 0x13891, offset: 0x13891, size: 0x8, addend: 0x0, symName: __ZNSt3__120__shared_ptr_emplaceI19AdvancedInterpreterNS_9allocatorIS1_EEED1Ev, symObjAddr: 0x1EBC, symBinAddr: 0x100005B58, symSize: 0x2C }
  - { offsetInCU: 0x138BE, offset: 0x138BE, size: 0x8, addend: 0x0, symName: __ZNSt3__120__shared_ptr_emplaceI19AdvancedInterpreterNS_9allocatorIS1_EEED0Ev, symObjAddr: 0x1EE8, symBinAddr: 0x100005B84, symSize: 0x30 }
  - { offsetInCU: 0x138EB, offset: 0x138EB, size: 0x8, addend: 0x0, symName: __ZNSt3__120__shared_ptr_emplaceI19AdvancedInterpreterNS_9allocatorIS1_EEE16__on_zero_sharedEv, symObjAddr: 0x1F18, symBinAddr: 0x100005BB4, symSize: 0x28 }
  - { offsetInCU: 0x13911, offset: 0x13911, size: 0x8, addend: 0x0, symName: __ZNSt3__120__shared_ptr_emplaceI19AdvancedInterpreterNS_9allocatorIS1_EEE21__on_zero_shared_weakEv, symObjAddr: 0x1F40, symBinAddr: 0x100005BDC, symSize: 0x5C }
  - { offsetInCU: 0x13952, offset: 0x13952, size: 0x8, addend: 0x0, symName: __ZNSt3__114__shared_countC2B7v160006El, symObjAddr: 0x1F9C, symBinAddr: 0x100005C38, symSize: 0x30 }
  - { offsetInCU: 0x1398A, offset: 0x1398A, size: 0x8, addend: 0x0, symName: __ZNSt3__120__shared_ptr_emplaceI19AdvancedInterpreterNS_9allocatorIS1_EEE8_StorageC2B7v160006EOS3_, symObjAddr: 0x1FCC, symBinAddr: 0x100005C68, symSize: 0x30 }
  - { offsetInCU: 0x139C3, offset: 0x139C3, size: 0x8, addend: 0x0, symName: __ZNSt3__120__shared_ptr_emplaceI19AdvancedInterpreterNS_9allocatorIS1_EEE8_Storage11__get_allocEv, symObjAddr: 0x1FFC, symBinAddr: 0x100005C98, symSize: 0x3C }
  - { offsetInCU: 0x13A16, offset: 0x13A16, size: 0x8, addend: 0x0, symName: __ZNSt3__117__compressed_pairINS_9allocatorI19AdvancedInterpreterEES2_E16__get_first_baseB7v160006EPS4_, symObjAddr: 0x2038, symBinAddr: 0x100005CD4, symSize: 0x14 }
  - { offsetInCU: 0x13A39, offset: 0x13A39, size: 0x8, addend: 0x0, symName: __ZN19AdvancedInterpreterC2ER17CalculationEngine, symObjAddr: 0x204C, symBinAddr: 0x100005CE8, symSize: 0x64 }
  - { offsetInCU: 0x13A71, offset: 0x13A71, size: 0x8, addend: 0x0, symName: __ZN16InputInterpreterC2ER17CalculationEngine, symObjAddr: 0x20B0, symBinAddr: 0x100005D4C, symSize: 0x30 }
  - { offsetInCU: 0x13AA9, offset: 0x13AA9, size: 0x8, addend: 0x0, symName: __ZNSt3__110shared_ptrI12MemoryRecallEC1B7v160006Ev, symObjAddr: 0x2118, symBinAddr: 0x100005DB4, symSize: 0x2C }
  - { offsetInCU: 0x13AD3, offset: 0x13AD3, size: 0x8, addend: 0x0, symName: __ZN19AdvancedInterpreter12getOperationENSt3__112basic_stringIcNS0_11char_traitsIcEENS0_9allocatorIcEEEE, symObjAddr: 0x2144, symBinAddr: 0x100005DE0, symSize: 0x148 }
  - { offsetInCU: 0x13B08, offset: 0x13B08, size: 0x8, addend: 0x0, symName: __ZN16InputInterpreter12getOperationENSt3__112basic_stringIcNS0_11char_traitsIcEENS0_9allocatorIcEEEE, symObjAddr: 0x228C, symBinAddr: 0x100005F28, symSize: 0x80 }
  - { offsetInCU: 0x13B63, offset: 0x13B63, size: 0x8, addend: 0x0, symName: __ZNSt3__110shared_ptrI9OperationEC1B7v160006I23MultiplicationOperationvEEONS0_IT_EE, symObjAddr: 0x2344, symBinAddr: 0x100005FE0, symSize: 0x34 }
  - { offsetInCU: 0x13BA6, offset: 0x13BA6, size: 0x8, addend: 0x0, symName: __ZNSt3__110shared_ptrI23MultiplicationOperationED1B7v160006Ev, symObjAddr: 0x2378, symBinAddr: 0x100006014, symSize: 0x2C }
  - { offsetInCU: 0x13BD0, offset: 0x13BD0, size: 0x8, addend: 0x0, symName: __ZNSt3__19allocatorI23MultiplicationOperationEC1B7v160006Ev, symObjAddr: 0x2434, symBinAddr: 0x1000060D0, symSize: 0x2C }
  - { offsetInCU: 0x13C39, offset: 0x13C39, size: 0x8, addend: 0x0, symName: __ZNSt3__118__allocation_guardINS_9allocatorINS_20__shared_ptr_emplaceI23MultiplicationOperationNS1_IS3_EEEEEEEC1B7v160006IS4_EET_m, symObjAddr: 0x2460, symBinAddr: 0x1000060FC, symSize: 0x34 }
  - { offsetInCU: 0x13C88, offset: 0x13C88, size: 0x8, addend: 0x0, symName: __ZNKSt3__118__allocation_guardINS_9allocatorINS_20__shared_ptr_emplaceI23MultiplicationOperationNS1_IS3_EEEEEEE5__getB7v160006Ev, symObjAddr: 0x2494, symBinAddr: 0x100006130, symSize: 0x18 }
  - { offsetInCU: 0x13CAE, offset: 0x13CAE, size: 0x8, addend: 0x0, symName: __ZNSt3__120__shared_ptr_emplaceI23MultiplicationOperationNS_9allocatorIS1_EEEC1B7v160006IJEEES3_DpOT_, symObjAddr: 0x24AC, symBinAddr: 0x100006148, symSize: 0x2C }
  - { offsetInCU: 0x13CEC, offset: 0x13CEC, size: 0x8, addend: 0x0, symName: __ZNSt3__118__allocation_guardINS_9allocatorINS_20__shared_ptr_emplaceI23MultiplicationOperationNS1_IS3_EEEEEEE13__release_ptrB7v160006Ev, symObjAddr: 0x24D8, symBinAddr: 0x100006174, symSize: 0x24 }
  - { offsetInCU: 0x13D20, offset: 0x13D20, size: 0x8, addend: 0x0, symName: __ZNSt3__110shared_ptrI23MultiplicationOperationE27__create_with_control_blockB7v160006IS1_NS_20__shared_ptr_emplaceIS1_NS_9allocatorIS1_EEEEEES2_PT_PT0_, symObjAddr: 0x24FC, symBinAddr: 0x100006198, symSize: 0xA4 }
  - { offsetInCU: 0x13D75, offset: 0x13D75, size: 0x8, addend: 0x0, symName: __ZNSt3__120__shared_ptr_emplaceI23MultiplicationOperationNS_9allocatorIS1_EEE10__get_elemB7v160006Ev, symObjAddr: 0x25A0, symBinAddr: 0x10000623C, symSize: 0x28 }
  - { offsetInCU: 0x13D9B, offset: 0x13D9B, size: 0x8, addend: 0x0, symName: __ZNSt3__118__allocation_guardINS_9allocatorINS_20__shared_ptr_emplaceI23MultiplicationOperationNS1_IS3_EEEEEEED1B7v160006Ev, symObjAddr: 0x25C8, symBinAddr: 0x100006264, symSize: 0x2C }
  - { offsetInCU: 0x13DC5, offset: 0x13DC5, size: 0x8, addend: 0x0, symName: __ZNSt3__118__allocation_guardINS_9allocatorINS_20__shared_ptr_emplaceI23MultiplicationOperationNS1_IS3_EEEEEEEC2B7v160006IS4_EET_m, symObjAddr: 0x25F4, symBinAddr: 0x100006290, symSize: 0x50 }
  - { offsetInCU: 0x13E14, offset: 0x13E14, size: 0x8, addend: 0x0, symName: __ZNSt3__19allocatorINS_20__shared_ptr_emplaceI23MultiplicationOperationNS0_IS2_EEEEEC1B7v160006IS2_EERKNS0_IT_EE, symObjAddr: 0x2644, symBinAddr: 0x1000062E0, symSize: 0x34 }
  - { offsetInCU: 0x13E51, offset: 0x13E51, size: 0x8, addend: 0x0, symName: __ZNSt3__116allocator_traitsINS_9allocatorINS_20__shared_ptr_emplaceI23MultiplicationOperationNS1_IS3_EEEEEEE8allocateB7v160006ERS6_m, symObjAddr: 0x2678, symBinAddr: 0x100006314, symSize: 0x2C }
  - { offsetInCU: 0x13E84, offset: 0x13E84, size: 0x8, addend: 0x0, symName: __ZNSt3__19allocatorINS_20__shared_ptr_emplaceI23MultiplicationOperationNS0_IS2_EEEEEC2B7v160006IS2_EERKNS0_IT_EE, symObjAddr: 0x26A4, symBinAddr: 0x100006340, symSize: 0x30 }
  - { offsetInCU: 0x13EC1, offset: 0x13EC1, size: 0x8, addend: 0x0, symName: __ZNSt3__116__non_trivial_ifILb1ENS_9allocatorINS_20__shared_ptr_emplaceI23MultiplicationOperationNS1_IS3_EEEEEEEC2B7v160006Ev, symObjAddr: 0x26D4, symBinAddr: 0x100006370, symSize: 0x14 }
  - { offsetInCU: 0x13EEB, offset: 0x13EEB, size: 0x8, addend: 0x0, symName: __ZNSt3__19allocatorINS_20__shared_ptr_emplaceI23MultiplicationOperationNS0_IS2_EEEEE8allocateB7v160006Em, symObjAddr: 0x26E8, symBinAddr: 0x100006384, symSize: 0x58 }
  - { offsetInCU: 0x13F2A, offset: 0x13F2A, size: 0x8, addend: 0x0, symName: __ZNSt3__116allocator_traitsINS_9allocatorINS_20__shared_ptr_emplaceI23MultiplicationOperationNS1_IS3_EEEEEEE8max_sizeB7v160006IS6_vEEmRKS6_, symObjAddr: 0x2740, symBinAddr: 0x1000063DC, symSize: 0x24 }
  - { offsetInCU: 0x13F58, offset: 0x13F58, size: 0x8, addend: 0x0, symName: __ZNKSt3__19allocatorINS_20__shared_ptr_emplaceI23MultiplicationOperationNS0_IS2_EEEEE8max_sizeB7v160006Ev, symObjAddr: 0x2764, symBinAddr: 0x100006400, symSize: 0x14 }
  - { offsetInCU: 0x13F7E, offset: 0x13F7E, size: 0x8, addend: 0x0, symName: __ZNSt3__120__shared_ptr_emplaceI23MultiplicationOperationNS_9allocatorIS1_EEEC2B7v160006IJEEES3_DpOT_, symObjAddr: 0x2778, symBinAddr: 0x100006414, symSize: 0xA0 }
  - { offsetInCU: 0x13FBC, offset: 0x13FBC, size: 0x8, addend: 0x0, symName: __ZNSt3__120__shared_ptr_emplaceI23MultiplicationOperationNS_9allocatorIS1_EEE8_StorageC1B7v160006EOS3_, symObjAddr: 0x2818, symBinAddr: 0x1000064B4, symSize: 0x34 }
  - { offsetInCU: 0x13FF5, offset: 0x13FF5, size: 0x8, addend: 0x0, symName: __ZN23MultiplicationOperationC1Ev, symObjAddr: 0x284C, symBinAddr: 0x1000064E8, symSize: 0x2C }
  - { offsetInCU: 0x14021, offset: 0x14021, size: 0x8, addend: 0x0, symName: __ZNSt3__120__shared_ptr_emplaceI23MultiplicationOperationNS_9allocatorIS1_EEED1Ev, symObjAddr: 0x2878, symBinAddr: 0x100006514, symSize: 0x2C }
  - { offsetInCU: 0x1404E, offset: 0x1404E, size: 0x8, addend: 0x0, symName: __ZNSt3__120__shared_ptr_emplaceI23MultiplicationOperationNS_9allocatorIS1_EEED0Ev, symObjAddr: 0x28A4, symBinAddr: 0x100006540, symSize: 0x30 }
  - { offsetInCU: 0x1407B, offset: 0x1407B, size: 0x8, addend: 0x0, symName: __ZNSt3__120__shared_ptr_emplaceI23MultiplicationOperationNS_9allocatorIS1_EEE16__on_zero_sharedEv, symObjAddr: 0x28D4, symBinAddr: 0x100006570, symSize: 0x30 }
  - { offsetInCU: 0x140A1, offset: 0x140A1, size: 0x8, addend: 0x0, symName: __ZNSt3__120__shared_ptr_emplaceI23MultiplicationOperationNS_9allocatorIS1_EEE21__on_zero_shared_weakEv, symObjAddr: 0x2904, symBinAddr: 0x1000065A0, symSize: 0x5C }
  - { offsetInCU: 0x140E2, offset: 0x140E2, size: 0x8, addend: 0x0, symName: __ZNSt3__120__shared_ptr_emplaceI23MultiplicationOperationNS_9allocatorIS1_EEE8_StorageC2B7v160006EOS3_, symObjAddr: 0x2960, symBinAddr: 0x1000065FC, symSize: 0x30 }
  - { offsetInCU: 0x1411B, offset: 0x1411B, size: 0x8, addend: 0x0, symName: __ZNSt3__120__shared_ptr_emplaceI23MultiplicationOperationNS_9allocatorIS1_EEE8_Storage11__get_allocEv, symObjAddr: 0x2990, symBinAddr: 0x10000662C, symSize: 0x3C }
  - { offsetInCU: 0x1416E, offset: 0x1416E, size: 0x8, addend: 0x0, symName: __ZNSt3__117__compressed_pairINS_9allocatorI23MultiplicationOperationEES2_E16__get_first_baseB7v160006EPS4_, symObjAddr: 0x29CC, symBinAddr: 0x100006668, symSize: 0x14 }
  - { offsetInCU: 0x14191, offset: 0x14191, size: 0x8, addend: 0x0, symName: __ZN23MultiplicationOperationC2Ev, symObjAddr: 0x29E0, symBinAddr: 0x10000667C, symSize: 0x50 }
  - { offsetInCU: 0x141BD, offset: 0x141BD, size: 0x8, addend: 0x0, symName: __ZN9OperationC2Ev, symObjAddr: 0x2A30, symBinAddr: 0x1000066CC, symSize: 0x24 }
  - { offsetInCU: 0x141E9, offset: 0x141E9, size: 0x8, addend: 0x0, symName: __ZNSt3__16vectorIiNS_9allocatorIiEEEC1B7v160006Ev, symObjAddr: 0x2A54, symBinAddr: 0x1000066F0, symSize: 0x2C }
  - { offsetInCU: 0x14213, offset: 0x14213, size: 0x8, addend: 0x0, symName: __ZN23MultiplicationOperation10addOperandEi, symObjAddr: 0x2A80, symBinAddr: 0x10000671C, symSize: 0x90 }
  - { offsetInCU: 0x14247, offset: 0x14247, size: 0x8, addend: 0x0, symName: __ZN23MultiplicationOperation9getResultEv, symObjAddr: 0x2B10, symBinAddr: 0x1000067AC, symSize: 0x18 }
  - { offsetInCU: 0x1426D, offset: 0x1426D, size: 0x8, addend: 0x0, symName: __ZN23MultiplicationOperation11isCompletedEv, symObjAddr: 0x2B28, symBinAddr: 0x1000067C4, symSize: 0x34 }
  - { offsetInCU: 0x14293, offset: 0x14293, size: 0x8, addend: 0x0, symName: __ZN23MultiplicationOperationD1Ev, symObjAddr: 0x2B5C, symBinAddr: 0x1000067F8, symSize: 0x2C }
  - { offsetInCU: 0x142BF, offset: 0x142BF, size: 0x8, addend: 0x0, symName: __ZN23MultiplicationOperationD0Ev, symObjAddr: 0x2B88, symBinAddr: 0x100006824, symSize: 0x30 }
  - { offsetInCU: 0x142EB, offset: 0x142EB, size: 0x8, addend: 0x0, symName: __ZN9OperationD1Ev, symObjAddr: 0x2BB8, symBinAddr: 0x100006854, symSize: 0x14 }
  - { offsetInCU: 0x14315, offset: 0x14315, size: 0x8, addend: 0x0, symName: __ZN9OperationD0Ev, symObjAddr: 0x2BCC, symBinAddr: 0x100006868, symSize: 0xC }
  - { offsetInCU: 0x1433F, offset: 0x1433F, size: 0x8, addend: 0x0, symName: __ZNSt3__16vectorIiNS_9allocatorIiEEEC2B7v160006Ev, symObjAddr: 0x2BD8, symBinAddr: 0x100006874, symSize: 0x58 }
  - { offsetInCU: 0x1436F, offset: 0x1436F, size: 0x8, addend: 0x0, symName: __ZNSt3__117__compressed_pairIPiNS_9allocatorIiEEEC1B7v160006IDnNS_18__default_init_tagEEEOT_OT0_, symObjAddr: 0x2C30, symBinAddr: 0x1000068CC, symSize: 0x3C }
  - { offsetInCU: 0x143C7, offset: 0x143C7, size: 0x8, addend: 0x0, symName: __ZNSt3__117__compressed_pairIPiNS_9allocatorIiEEEC2B7v160006IDnNS_18__default_init_tagEEEOT_OT0_, symObjAddr: 0x2C7C, symBinAddr: 0x100006918, symSize: 0x40 }
  - { offsetInCU: 0x1441F, offset: 0x1441F, size: 0x8, addend: 0x0, symName: __ZNSt3__122__compressed_pair_elemIPiLi0ELb0EEC2B7v160006IDnvEEOT_, symObjAddr: 0x2CBC, symBinAddr: 0x100006958, symSize: 0x1C }
  - { offsetInCU: 0x14461, offset: 0x14461, size: 0x8, addend: 0x0, symName: __ZNSt3__122__compressed_pair_elemINS_9allocatorIiEELi1ELb1EEC2B7v160006ENS_18__default_init_tagE, symObjAddr: 0x2CD8, symBinAddr: 0x100006974, symSize: 0x2C }
  - { offsetInCU: 0x14495, offset: 0x14495, size: 0x8, addend: 0x0, symName: __ZNSt3__19allocatorIiEC2B7v160006Ev, symObjAddr: 0x2D04, symBinAddr: 0x1000069A0, symSize: 0x2C }
  - { offsetInCU: 0x144BF, offset: 0x144BF, size: 0x8, addend: 0x0, symName: __ZNSt3__116__non_trivial_ifILb1ENS_9allocatorIiEEEC2B7v160006Ev, symObjAddr: 0x2D30, symBinAddr: 0x1000069CC, symSize: 0x14 }
  - { offsetInCU: 0x144E9, offset: 0x144E9, size: 0x8, addend: 0x0, symName: __ZNSt3__16vectorIiNS_9allocatorIiEEE9push_backB7v160006ERKi, symObjAddr: 0x2D44, symBinAddr: 0x1000069E0, symSize: 0x6C }
  - { offsetInCU: 0x14520, offset: 0x14520, size: 0x8, addend: 0x0, symName: __ZNSt3__16vectorIiNS_9allocatorIiEEEixB7v160006Em, symObjAddr: 0x2DB0, symBinAddr: 0x100006A4C, symSize: 0x24 }
  - { offsetInCU: 0x14557, offset: 0x14557, size: 0x8, addend: 0x0, symName: __ZNSt3__16vectorIiNS_9allocatorIiEEE9__end_capB7v160006Ev, symObjAddr: 0x2DD4, symBinAddr: 0x100006A70, symSize: 0x28 }
  - { offsetInCU: 0x1457D, offset: 0x1457D, size: 0x8, addend: 0x0, symName: __ZNSt3__16vectorIiNS_9allocatorIiEEE22__construct_one_at_endB7v160006IJRKiEEEvDpOT_, symObjAddr: 0x2DFC, symBinAddr: 0x100006A98, symSize: 0x90 }
  - { offsetInCU: 0x145CC, offset: 0x145CC, size: 0x8, addend: 0x0, symName: __ZNSt3__16vectorIiNS_9allocatorIiEEE21__push_back_slow_pathIRKiEEvOT_, symObjAddr: 0x2E8C, symBinAddr: 0x100006B28, symSize: 0xD8 }
  - { offsetInCU: 0x1462A, offset: 0x1462A, size: 0x8, addend: 0x0, symName: __ZNSt3__117__compressed_pairIPiNS_9allocatorIiEEE5firstB7v160006Ev, symObjAddr: 0x2F64, symBinAddr: 0x100006C00, symSize: 0x24 }
  - { offsetInCU: 0x14650, offset: 0x14650, size: 0x8, addend: 0x0, symName: __ZNSt3__122__compressed_pair_elemIPiLi0ELb0EE5__getB7v160006Ev, symObjAddr: 0x2F88, symBinAddr: 0x100006C24, symSize: 0x14 }
  - { offsetInCU: 0x14691, offset: 0x14691, size: 0x8, addend: 0x0, symName: __ZNSt3__16vectorIiNS_9allocatorIiEEE21_ConstructTransactionC1B7v160006ERS3_m, symObjAddr: 0x2F9C, symBinAddr: 0x100006C38, symSize: 0x3C }
  - { offsetInCU: 0x146D9, offset: 0x146D9, size: 0x8, addend: 0x0, symName: __ZNSt3__116allocator_traitsINS_9allocatorIiEEE9constructB7v160006IiJRKiEvEEvRS2_PT_DpOT0_, symObjAddr: 0x2FD8, symBinAddr: 0x100006C74, symSize: 0x34 }
  - { offsetInCU: 0x14730, offset: 0x14730, size: 0x8, addend: 0x0, symName: __ZNSt3__16vectorIiNS_9allocatorIiEEE7__allocB7v160006Ev, symObjAddr: 0x300C, symBinAddr: 0x100006CA8, symSize: 0x28 }
  - { offsetInCU: 0x14756, offset: 0x14756, size: 0x8, addend: 0x0, symName: __ZNSt3__16vectorIiNS_9allocatorIiEEE21_ConstructTransactionD1B7v160006Ev, symObjAddr: 0x3048, symBinAddr: 0x100006CE4, symSize: 0x2C }
  - { offsetInCU: 0x14780, offset: 0x14780, size: 0x8, addend: 0x0, symName: __ZNSt3__16vectorIiNS_9allocatorIiEEE21_ConstructTransactionC2B7v160006ERS3_m, symObjAddr: 0x3074, symBinAddr: 0x100006D10, symSize: 0x44 }
  - { offsetInCU: 0x147C8, offset: 0x147C8, size: 0x8, addend: 0x0, symName: __ZNSt3__19allocatorIiE9constructB7v160006IiJRKiEEEvPT_DpOT0_, symObjAddr: 0x30B8, symBinAddr: 0x100006D54, symSize: 0x28 }
  - { offsetInCU: 0x1481E, offset: 0x1481E, size: 0x8, addend: 0x0, symName: __ZNSt3__117__compressed_pairIPiNS_9allocatorIiEEE6secondB7v160006Ev, symObjAddr: 0x30E0, symBinAddr: 0x100006D7C, symSize: 0x24 }
  - { offsetInCU: 0x14844, offset: 0x14844, size: 0x8, addend: 0x0, symName: __ZNSt3__122__compressed_pair_elemINS_9allocatorIiEELi1ELb1EE5__getB7v160006Ev, symObjAddr: 0x3104, symBinAddr: 0x100006DA0, symSize: 0x14 }
  - { offsetInCU: 0x1486A, offset: 0x1486A, size: 0x8, addend: 0x0, symName: __ZNSt3__16vectorIiNS_9allocatorIiEEE21_ConstructTransactionD2B7v160006Ev, symObjAddr: 0x3118, symBinAddr: 0x100006DB4, symSize: 0x20 }
  - { offsetInCU: 0x14894, offset: 0x14894, size: 0x8, addend: 0x0, symName: __ZNKSt3__16vectorIiNS_9allocatorIiEEE11__recommendB7v160006Em, symObjAddr: 0x3138, symBinAddr: 0x100006DD4, symSize: 0xB4 }
  - { offsetInCU: 0x148E9, offset: 0x148E9, size: 0x8, addend: 0x0, symName: __ZNKSt3__16vectorIiNS_9allocatorIiEEE4sizeB7v160006Ev, symObjAddr: 0x31EC, symBinAddr: 0x100006E88, symSize: 0x28 }
  - { offsetInCU: 0x1490F, offset: 0x1490F, size: 0x8, addend: 0x0, symName: __ZNSt3__114__split_bufferIiRNS_9allocatorIiEEEC1EmmS3_, symObjAddr: 0x3214, symBinAddr: 0x100006EB0, symSize: 0x44 }
  - { offsetInCU: 0x14965, offset: 0x14965, size: 0x8, addend: 0x0, symName: __ZNSt3__114__split_bufferIiRNS_9allocatorIiEEED1Ev, symObjAddr: 0x3370, symBinAddr: 0x10000700C, symSize: 0x2C }
  - { offsetInCU: 0x14991, offset: 0x14991, size: 0x8, addend: 0x0, symName: __ZNKSt3__16vectorIiNS_9allocatorIiEEE8max_sizeEv, symObjAddr: 0x339C, symBinAddr: 0x100007038, symSize: 0x60 }
  - { offsetInCU: 0x149B9, offset: 0x149B9, size: 0x8, addend: 0x0, symName: __ZNKSt3__16vectorIiNS_9allocatorIiEEE20__throw_length_errorB7v160006Ev, symObjAddr: 0x33FC, symBinAddr: 0x100007098, symSize: 0x1C }
  - { offsetInCU: 0x149DF, offset: 0x149DF, size: 0x8, addend: 0x0, symName: __ZNKSt3__16vectorIiNS_9allocatorIiEEE8capacityB7v160006Ev, symObjAddr: 0x3418, symBinAddr: 0x1000070B4, symSize: 0x40 }
  - { offsetInCU: 0x14A10, offset: 0x14A10, size: 0x8, addend: 0x0, symName: __ZNSt3__116allocator_traitsINS_9allocatorIiEEE8max_sizeB7v160006IS2_vEEmRKS2_, symObjAddr: 0x34B0, symBinAddr: 0x10000714C, symSize: 0x24 }
  - { offsetInCU: 0x14A3E, offset: 0x14A3E, size: 0x8, addend: 0x0, symName: __ZNKSt3__16vectorIiNS_9allocatorIiEEE7__allocB7v160006Ev, symObjAddr: 0x34D4, symBinAddr: 0x100007170, symSize: 0x28 }
  - { offsetInCU: 0x14A64, offset: 0x14A64, size: 0x8, addend: 0x0, symName: __ZNSt3__114numeric_limitsIlE3maxB7v160006Ev, symObjAddr: 0x34FC, symBinAddr: 0x100007198, symSize: 0x14 }
  - { offsetInCU: 0x14A82, offset: 0x14A82, size: 0x8, addend: 0x0, symName: __ZNKSt3__16__lessImmEclB7v160006ERKmS3_, symObjAddr: 0x3564, symBinAddr: 0x100007200, symSize: 0x34 }
  - { offsetInCU: 0x14AC4, offset: 0x14AC4, size: 0x8, addend: 0x0, symName: __ZNKSt3__19allocatorIiE8max_sizeB7v160006Ev, symObjAddr: 0x3598, symBinAddr: 0x100007234, symSize: 0x14 }
  - { offsetInCU: 0x14AEA, offset: 0x14AEA, size: 0x8, addend: 0x0, symName: __ZNKSt3__117__compressed_pairIPiNS_9allocatorIiEEE6secondB7v160006Ev, symObjAddr: 0x35AC, symBinAddr: 0x100007248, symSize: 0x24 }
  - { offsetInCU: 0x14B10, offset: 0x14B10, size: 0x8, addend: 0x0, symName: __ZNKSt3__122__compressed_pair_elemINS_9allocatorIiEELi1ELb1EE5__getB7v160006Ev, symObjAddr: 0x35D0, symBinAddr: 0x10000726C, symSize: 0x14 }
  - { offsetInCU: 0x14B36, offset: 0x14B36, size: 0x8, addend: 0x0, symName: __ZNSt3__123__libcpp_numeric_limitsIlLb1EE3maxB7v160006Ev, symObjAddr: 0x35E4, symBinAddr: 0x100007280, symSize: 0x8 }
  - { offsetInCU: 0x14B4A, offset: 0x14B4A, size: 0x8, addend: 0x0, symName: __ZNSt12length_errorC1B7v160006EPKc, symObjAddr: 0x3650, symBinAddr: 0x1000072EC, symSize: 0x34 }
  - { offsetInCU: 0x14B82, offset: 0x14B82, size: 0x8, addend: 0x0, symName: __ZNSt12length_errorC2B7v160006EPKc, symObjAddr: 0x3684, symBinAddr: 0x100007320, symSize: 0x4C }
  - { offsetInCU: 0x14BBA, offset: 0x14BBA, size: 0x8, addend: 0x0, symName: __ZNKSt3__16vectorIiNS_9allocatorIiEEE9__end_capB7v160006Ev, symObjAddr: 0x36D0, symBinAddr: 0x10000736C, symSize: 0x28 }
  - { offsetInCU: 0x14BE0, offset: 0x14BE0, size: 0x8, addend: 0x0, symName: __ZNKSt3__117__compressed_pairIPiNS_9allocatorIiEEE5firstB7v160006Ev, symObjAddr: 0x36F8, symBinAddr: 0x100007394, symSize: 0x24 }
  - { offsetInCU: 0x14C06, offset: 0x14C06, size: 0x8, addend: 0x0, symName: __ZNKSt3__122__compressed_pair_elemIPiLi0ELb0EE5__getB7v160006Ev, symObjAddr: 0x371C, symBinAddr: 0x1000073B8, symSize: 0x14 }
  - { offsetInCU: 0x14C2C, offset: 0x14C2C, size: 0x8, addend: 0x0, symName: __ZNSt3__114__split_bufferIiRNS_9allocatorIiEEEC2EmmS3_, symObjAddr: 0x3784, symBinAddr: 0x100007420, symSize: 0xD4 }
  - { offsetInCU: 0x14C9F, offset: 0x14C9F, size: 0x8, addend: 0x0, symName: __ZNSt3__117__compressed_pairIPiRNS_9allocatorIiEEEC1B7v160006IDnS4_EEOT_OT0_, symObjAddr: 0x3858, symBinAddr: 0x1000074F4, symSize: 0x3C }
  - { offsetInCU: 0x14CF7, offset: 0x14CF7, size: 0x8, addend: 0x0, symName: __ZNSt3__114__split_bufferIiRNS_9allocatorIiEEE7__allocB7v160006Ev, symObjAddr: 0x38D4, symBinAddr: 0x100007570, symSize: 0x28 }
  - { offsetInCU: 0x14D1D, offset: 0x14D1D, size: 0x8, addend: 0x0, symName: __ZNSt3__114__split_bufferIiRNS_9allocatorIiEEE9__end_capB7v160006Ev, symObjAddr: 0x38FC, symBinAddr: 0x100007598, symSize: 0x28 }
  - { offsetInCU: 0x14D43, offset: 0x14D43, size: 0x8, addend: 0x0, symName: __ZNSt3__117__compressed_pairIPiRNS_9allocatorIiEEEC2B7v160006IDnS4_EEOT_OT0_, symObjAddr: 0x3924, symBinAddr: 0x1000075C0, symSize: 0x48 }
  - { offsetInCU: 0x14D9B, offset: 0x14D9B, size: 0x8, addend: 0x0, symName: __ZNSt3__122__compressed_pair_elemIRNS_9allocatorIiEELi1ELb0EEC2B7v160006IS3_vEEOT_, symObjAddr: 0x396C, symBinAddr: 0x100007608, symSize: 0x20 }
  - { offsetInCU: 0x14DDD, offset: 0x14DDD, size: 0x8, addend: 0x0, symName: __ZNSt3__19allocatorIiE8allocateB7v160006Em, symObjAddr: 0x398C, symBinAddr: 0x100007628, symSize: 0x58 }
  - { offsetInCU: 0x14E11, offset: 0x14E11, size: 0x8, addend: 0x0, symName: __ZNSt3__117__compressed_pairIPiRNS_9allocatorIiEEE6secondB7v160006Ev, symObjAddr: 0x39E4, symBinAddr: 0x100007680, symSize: 0x28 }
  - { offsetInCU: 0x14E37, offset: 0x14E37, size: 0x8, addend: 0x0, symName: __ZNSt3__122__compressed_pair_elemIRNS_9allocatorIiEELi1ELb0EE5__getB7v160006Ev, symObjAddr: 0x3A0C, symBinAddr: 0x1000076A8, symSize: 0x18 }
  - { offsetInCU: 0x14E5D, offset: 0x14E5D, size: 0x8, addend: 0x0, symName: __ZNSt3__117__compressed_pairIPiRNS_9allocatorIiEEE5firstB7v160006Ev, symObjAddr: 0x3A24, symBinAddr: 0x1000076C0, symSize: 0x24 }
  - { offsetInCU: 0x14E83, offset: 0x14E83, size: 0x8, addend: 0x0, symName: __ZNKSt3__16vectorIiNS_9allocatorIiEEE17__annotate_deleteB7v160006Ev, symObjAddr: 0x3A48, symBinAddr: 0x1000076E4, symSize: 0xB8 }
  - { offsetInCU: 0x14EA9, offset: 0x14EA9, size: 0x8, addend: 0x0, symName: __ZNSt3__116reverse_iteratorIPiEC1B7v160006ES1_, symObjAddr: 0x3B78, symBinAddr: 0x100007814, symSize: 0x34 }
  - { offsetInCU: 0x14EE1, offset: 0x14EE1, size: 0x8, addend: 0x0, symName: __ZNKSt3__116reverse_iteratorIPiE4baseB7v160006Ev, symObjAddr: 0x3BAC, symBinAddr: 0x100007848, symSize: 0x18 }
  - { offsetInCU: 0x14F07, offset: 0x14F07, size: 0x8, addend: 0x0, symName: __ZNKSt3__16vectorIiNS_9allocatorIiEEE14__annotate_newB7v160006Em, symObjAddr: 0x3C00, symBinAddr: 0x10000789C, symSize: 0xAC }
  - { offsetInCU: 0x14F3C, offset: 0x14F3C, size: 0x8, addend: 0x0, symName: __ZNKSt3__16vectorIiNS_9allocatorIiEEE31__annotate_contiguous_containerB7v160006EPKvS5_S5_S5_, symObjAddr: 0x3CBC, symBinAddr: 0x100007958, symSize: 0x20 }
  - { offsetInCU: 0x14F8E, offset: 0x14F8E, size: 0x8, addend: 0x0, symName: __ZNKSt3__16vectorIiNS_9allocatorIiEEE4dataB7v160006Ev, symObjAddr: 0x3CDC, symBinAddr: 0x100007978, symSize: 0x28 }
  - { offsetInCU: 0x14FDA, offset: 0x14FDA, size: 0x8, addend: 0x0, symName: __ZNKSt3__111__move_loopINS_17_ClassicAlgPolicyEEclB7v160006INS_16reverse_iteratorIPiEES6_S6_EENS_4pairIT_T1_EES8_T0_S9_, symObjAddr: 0x3FF4, symBinAddr: 0x100007C90, symSize: 0xA0 }
  - { offsetInCU: 0x1504B, offset: 0x1504B, size: 0x8, addend: 0x0, symName: __ZNSt3__18_IterOpsINS_17_ClassicAlgPolicyEE11__iter_moveB7v160006IRNS_16reverse_iteratorIPiEEEENS_9enable_ifIXsr12is_referenceIDTdeclsr3stdE7declvalIRT_EEEEE5valueEDTclsr3stdE4movedeclsr3stdE7declvalISA_EEEEE4typeEOS9_, symObjAddr: 0x4228, symBinAddr: 0x100007EC4, symSize: 0x28 }
  - { offsetInCU: 0x15077, offset: 0x15077, size: 0x8, addend: 0x0, symName: __ZNKSt3__116reverse_iteratorIPiEdeB7v160006Ev, symObjAddr: 0x4250, symBinAddr: 0x100007EEC, symSize: 0x28 }
  - { offsetInCU: 0x150AB, offset: 0x150AB, size: 0x8, addend: 0x0, symName: __ZNSt3__116reverse_iteratorIPiEppB7v160006Ev, symObjAddr: 0x4278, symBinAddr: 0x100007F14, symSize: 0x20 }
  - { offsetInCU: 0x150D1, offset: 0x150D1, size: 0x8, addend: 0x0, symName: __ZNSt3__18_IterOpsINS_17_ClassicAlgPolicyEE25__validate_iter_referenceB7v160006IRNS_16reverse_iteratorIPiEEEEvv, symObjAddr: 0x4298, symBinAddr: 0x100007F34, symSize: 0x4 }
  - { offsetInCU: 0x150EF, offset: 0x150EF, size: 0x8, addend: 0x0, symName: __ZNSt3__118__unwrap_iter_implINS_16reverse_iteratorIPiEELb0EE8__unwrapB7v160006ES3_, symObjAddr: 0x429C, symBinAddr: 0x100007F38, symSize: 0x24 }
  - { offsetInCU: 0x15118, offset: 0x15118, size: 0x8, addend: 0x0, symName: __ZNSt3__14pairINS_16reverse_iteratorIPiEES3_EC1B7v160006IS3_S3_LPv0EEEOT_OT0_, symObjAddr: 0x42C0, symBinAddr: 0x100007F5C, symSize: 0x3C }
  - { offsetInCU: 0x15176, offset: 0x15176, size: 0x8, addend: 0x0, symName: __ZNSt3__14pairINS_16reverse_iteratorIPiEES3_EC2B7v160006IS3_S3_LPv0EEEOT_OT0_, symObjAddr: 0x42FC, symBinAddr: 0x100007F98, symSize: 0x34 }
  - { offsetInCU: 0x151D4, offset: 0x151D4, size: 0x8, addend: 0x0, symName: __ZNSt3__118__unwrap_iter_implINS_16reverse_iteratorIPiEELb0EE8__rewrapB7v160006ES3_S3_, symObjAddr: 0x4330, symBinAddr: 0x100007FCC, symSize: 0x2C }
  - { offsetInCU: 0x15201, offset: 0x15201, size: 0x8, addend: 0x0, symName: __ZNSt3__116reverse_iteratorIPiEC2B7v160006ES1_, symObjAddr: 0x435C, symBinAddr: 0x100007FF8, symSize: 0x28 }
  - { offsetInCU: 0x15239, offset: 0x15239, size: 0x8, addend: 0x0, symName: __ZNSt3__114__split_bufferIiRNS_9allocatorIiEEED2Ev, symObjAddr: 0x4384, symBinAddr: 0x100008020, symSize: 0x8C }
  - { offsetInCU: 0x15265, offset: 0x15265, size: 0x8, addend: 0x0, symName: __ZNSt3__114__split_bufferIiRNS_9allocatorIiEEE5clearB7v160006Ev, symObjAddr: 0x4410, symBinAddr: 0x1000080AC, symSize: 0x28 }
  - { offsetInCU: 0x1528B, offset: 0x1528B, size: 0x8, addend: 0x0, symName: __ZNSt3__116allocator_traitsINS_9allocatorIiEEE10deallocateB7v160006ERS2_Pim, symObjAddr: 0x4438, symBinAddr: 0x1000080D4, symSize: 0x34 }
  - { offsetInCU: 0x152CD, offset: 0x152CD, size: 0x8, addend: 0x0, symName: __ZNKSt3__114__split_bufferIiRNS_9allocatorIiEEE8capacityB7v160006Ev, symObjAddr: 0x446C, symBinAddr: 0x100008108, symSize: 0x40 }
  - { offsetInCU: 0x152F3, offset: 0x152F3, size: 0x8, addend: 0x0, symName: __ZNSt3__114__split_bufferIiRNS_9allocatorIiEEE17__destruct_at_endB7v160006EPi, symObjAddr: 0x44AC, symBinAddr: 0x100008148, symSize: 0x2C }
  - { offsetInCU: 0x15327, offset: 0x15327, size: 0x8, addend: 0x0, symName: __ZNSt3__114__split_bufferIiRNS_9allocatorIiEEE17__destruct_at_endB7v160006EPiNS_17integral_constantIbLb0EEE, symObjAddr: 0x44D8, symBinAddr: 0x100008174, symSize: 0x80 }
  - { offsetInCU: 0x15367, offset: 0x15367, size: 0x8, addend: 0x0, symName: __ZNSt3__116allocator_traitsINS_9allocatorIiEEE7destroyB7v160006IivEEvRS2_PT_, symObjAddr: 0x4558, symBinAddr: 0x1000081F4, symSize: 0x2C }
  - { offsetInCU: 0x153A4, offset: 0x153A4, size: 0x8, addend: 0x0, symName: __ZNSt3__19allocatorIiE7destroyB7v160006EPi, symObjAddr: 0x4584, symBinAddr: 0x100008220, symSize: 0x14 }
  - { offsetInCU: 0x153D8, offset: 0x153D8, size: 0x8, addend: 0x0, symName: __ZNSt3__19allocatorIiE10deallocateB7v160006EPim, symObjAddr: 0x4598, symBinAddr: 0x100008234, symSize: 0x40 }
  - { offsetInCU: 0x1541A, offset: 0x1541A, size: 0x8, addend: 0x0, symName: __ZNKSt3__114__split_bufferIiRNS_9allocatorIiEEE9__end_capB7v160006Ev, symObjAddr: 0x46E0, symBinAddr: 0x10000837C, symSize: 0x28 }
  - { offsetInCU: 0x15440, offset: 0x15440, size: 0x8, addend: 0x0, symName: __ZNKSt3__117__compressed_pairIPiRNS_9allocatorIiEEE5firstB7v160006Ev, symObjAddr: 0x4708, symBinAddr: 0x1000083A4, symSize: 0x24 }
  - { offsetInCU: 0x15466, offset: 0x15466, size: 0x8, addend: 0x0, symName: __ZN23MultiplicationOperationD2Ev, symObjAddr: 0x472C, symBinAddr: 0x1000083C8, symSize: 0x48 }
  - { offsetInCU: 0x15492, offset: 0x15492, size: 0x8, addend: 0x0, symName: __ZNSt3__16vectorIiNS_9allocatorIiEEED1B7v160006Ev, symObjAddr: 0x4774, symBinAddr: 0x100008410, symSize: 0x2C }
  - { offsetInCU: 0x154BC, offset: 0x154BC, size: 0x8, addend: 0x0, symName: __ZN9OperationD2Ev, symObjAddr: 0x47A0, symBinAddr: 0x10000843C, symSize: 0x14 }
  - { offsetInCU: 0x154E6, offset: 0x154E6, size: 0x8, addend: 0x0, symName: __ZNSt3__16vectorIiNS_9allocatorIiEEED2B7v160006Ev, symObjAddr: 0x47B4, symBinAddr: 0x100008450, symSize: 0x44 }
  - { offsetInCU: 0x15510, offset: 0x15510, size: 0x8, addend: 0x0, symName: __ZNSt3__16vectorIiNS_9allocatorIiEEE16__destroy_vectorC1ERS3_, symObjAddr: 0x47F8, symBinAddr: 0x100008494, symSize: 0x34 }
  - { offsetInCU: 0x15549, offset: 0x15549, size: 0x8, addend: 0x0, symName: __ZNSt3__16vectorIiNS_9allocatorIiEEE16__destroy_vectorclB7v160006Ev, symObjAddr: 0x482C, symBinAddr: 0x1000084C8, symSize: 0x9C }
  - { offsetInCU: 0x1556F, offset: 0x1556F, size: 0x8, addend: 0x0, symName: __ZNSt3__16vectorIiNS_9allocatorIiEEE16__destroy_vectorC2ERS3_, symObjAddr: 0x48C8, symBinAddr: 0x100008564, symSize: 0x20 }
  - { offsetInCU: 0x155A8, offset: 0x155A8, size: 0x8, addend: 0x0, symName: __ZNSt3__16vectorIiNS_9allocatorIiEEE7__clearB7v160006Ev, symObjAddr: 0x48F8, symBinAddr: 0x100008594, symSize: 0x28 }
  - { offsetInCU: 0x155CE, offset: 0x155CE, size: 0x8, addend: 0x0, symName: __ZNSt3__16vectorIiNS_9allocatorIiEEE22__base_destruct_at_endB7v160006EPi, symObjAddr: 0x4920, symBinAddr: 0x1000085BC, symSize: 0x8C }
  - { offsetInCU: 0x15612, offset: 0x15612, size: 0x8, addend: 0x0, symName: __ZNSt3__120__shared_ptr_emplaceI23MultiplicationOperationNS_9allocatorIS1_EEED2Ev, symObjAddr: 0x49AC, symBinAddr: 0x100008648, symSize: 0x48 }
  - { offsetInCU: 0x1563F, offset: 0x1563F, size: 0x8, addend: 0x0, symName: __ZNSt3__120__shared_ptr_emplaceI23MultiplicationOperationNS_9allocatorIS1_EEE8_StorageD1B7v160006Ev, symObjAddr: 0x49F4, symBinAddr: 0x100008690, symSize: 0x2C }
  - { offsetInCU: 0x15669, offset: 0x15669, size: 0x8, addend: 0x0, symName: __ZNSt3__120__shared_ptr_emplaceI23MultiplicationOperationNS_9allocatorIS1_EEE8_StorageD2B7v160006Ev, symObjAddr: 0x4A20, symBinAddr: 0x1000086BC, symSize: 0x2C }
  - { offsetInCU: 0x15693, offset: 0x15693, size: 0x8, addend: 0x0, symName: __ZNSt3__120__shared_ptr_emplaceI23MultiplicationOperationNS_9allocatorIS1_EEE11__get_allocB7v160006Ev, symObjAddr: 0x4A4C, symBinAddr: 0x1000086E8, symSize: 0x28 }
  - { offsetInCU: 0x156B9, offset: 0x156B9, size: 0x8, addend: 0x0, symName: __ZNSt3__116allocator_traitsINS_9allocatorINS_20__shared_ptr_emplaceI23MultiplicationOperationNS1_IS3_EEEEEEE10deallocateB7v160006ERS6_PS5_m, symObjAddr: 0x4A74, symBinAddr: 0x100008710, symSize: 0x34 }
  - { offsetInCU: 0x156FB, offset: 0x156FB, size: 0x8, addend: 0x0, symName: __ZNSt3__114pointer_traitsIPNS_20__shared_ptr_emplaceI23MultiplicationOperationNS_9allocatorIS2_EEEEE10pointer_toB7v160006ERS5_, symObjAddr: 0x4AA8, symBinAddr: 0x100008744, symSize: 0x14 }
  - { offsetInCU: 0x1571E, offset: 0x1571E, size: 0x8, addend: 0x0, symName: __ZNSt3__19allocatorINS_20__shared_ptr_emplaceI23MultiplicationOperationNS0_IS2_EEEEE10deallocateB7v160006EPS4_m, symObjAddr: 0x4ABC, symBinAddr: 0x100008758, symSize: 0x40 }
  - { offsetInCU: 0x15760, offset: 0x15760, size: 0x8, addend: 0x0, symName: __ZNSt3__110shared_ptrI23MultiplicationOperationEC1B7v160006Ev, symObjAddr: 0x4AFC, symBinAddr: 0x100008798, symSize: 0x2C }
  - { offsetInCU: 0x1578A, offset: 0x1578A, size: 0x8, addend: 0x0, symName: __ZNSt3__110shared_ptrI23MultiplicationOperationE18__enable_weak_thisB7v160006Ez, symObjAddr: 0x4B28, symBinAddr: 0x1000087C4, symSize: 0x10 }
  - { offsetInCU: 0x157B1, offset: 0x157B1, size: 0x8, addend: 0x0, symName: __ZNSt3__110shared_ptrI23MultiplicationOperationEC2B7v160006Ev, symObjAddr: 0x4B38, symBinAddr: 0x1000087D4, symSize: 0x1C }
  - { offsetInCU: 0x157DB, offset: 0x157DB, size: 0x8, addend: 0x0, symName: __ZNSt3__120__shared_ptr_emplaceI23MultiplicationOperationNS_9allocatorIS1_EEE8_Storage10__get_elemEv, symObjAddr: 0x4B54, symBinAddr: 0x1000087F0, symSize: 0x3C }
  - { offsetInCU: 0x1582E, offset: 0x1582E, size: 0x8, addend: 0x0, symName: __ZNSt3__117__compressed_pairINS_9allocatorI23MultiplicationOperationEES2_E17__get_second_baseB7v160006EPS4_, symObjAddr: 0x4B90, symBinAddr: 0x10000882C, symSize: 0x14 }
  - { offsetInCU: 0x15851, offset: 0x15851, size: 0x8, addend: 0x0, symName: __ZNSt3__118__allocation_guardINS_9allocatorINS_20__shared_ptr_emplaceI23MultiplicationOperationNS1_IS3_EEEEEEED2B7v160006Ev, symObjAddr: 0x4BA4, symBinAddr: 0x100008840, symSize: 0x58 }
  - { offsetInCU: 0x1587B, offset: 0x1587B, size: 0x8, addend: 0x0, symName: __ZNSt3__19allocatorI23MultiplicationOperationEC2B7v160006Ev, symObjAddr: 0x4BFC, symBinAddr: 0x100008898, symSize: 0x2C }
  - { offsetInCU: 0x158A5, offset: 0x158A5, size: 0x8, addend: 0x0, symName: __ZNSt3__116__non_trivial_ifILb1ENS_9allocatorI23MultiplicationOperationEEEC2B7v160006Ev, symObjAddr: 0x4C28, symBinAddr: 0x1000088C4, symSize: 0x14 }
  - { offsetInCU: 0x158CF, offset: 0x158CF, size: 0x8, addend: 0x0, symName: __ZNSt3__110shared_ptrI9OperationEC2B7v160006I23MultiplicationOperationvEEONS0_IT_EE, symObjAddr: 0x4C3C, symBinAddr: 0x1000088D8, symSize: 0x40 }
  - { offsetInCU: 0x15912, offset: 0x15912, size: 0x8, addend: 0x0, symName: __ZNSt3__110shared_ptrI23MultiplicationOperationED2B7v160006Ev, symObjAddr: 0x4C7C, symBinAddr: 0x100008918, symSize: 0x54 }
  - { offsetInCU: 0x1593C, offset: 0x1593C, size: 0x8, addend: 0x0, symName: __ZNSt3__19allocatorI9MemorySetEC1B7v160006Ev, symObjAddr: 0x4D60, symBinAddr: 0x1000089FC, symSize: 0x2C }
  - { offsetInCU: 0x159A5, offset: 0x159A5, size: 0x8, addend: 0x0, symName: __ZNSt3__118__allocation_guardINS_9allocatorINS_20__shared_ptr_emplaceI9MemorySetNS1_IS3_EEEEEEEC1B7v160006IS4_EET_m, symObjAddr: 0x4D8C, symBinAddr: 0x100008A28, symSize: 0x34 }
  - { offsetInCU: 0x159F4, offset: 0x159F4, size: 0x8, addend: 0x0, symName: __ZNKSt3__118__allocation_guardINS_9allocatorINS_20__shared_ptr_emplaceI9MemorySetNS1_IS3_EEEEEEE5__getB7v160006Ev, symObjAddr: 0x4DC0, symBinAddr: 0x100008A5C, symSize: 0x18 }
  - { offsetInCU: 0x15A1A, offset: 0x15A1A, size: 0x8, addend: 0x0, symName: __ZNSt3__120__shared_ptr_emplaceI9MemorySetNS_9allocatorIS1_EEEC1B7v160006IJEEES3_DpOT_, symObjAddr: 0x4DD8, symBinAddr: 0x100008A74, symSize: 0x2C }
  - { offsetInCU: 0x15A58, offset: 0x15A58, size: 0x8, addend: 0x0, symName: __ZNSt3__118__allocation_guardINS_9allocatorINS_20__shared_ptr_emplaceI9MemorySetNS1_IS3_EEEEEEE13__release_ptrB7v160006Ev, symObjAddr: 0x4E04, symBinAddr: 0x100008AA0, symSize: 0x24 }
  - { offsetInCU: 0x15A8C, offset: 0x15A8C, size: 0x8, addend: 0x0, symName: __ZNSt3__110shared_ptrI9MemorySetE27__create_with_control_blockB7v160006IS1_NS_20__shared_ptr_emplaceIS1_NS_9allocatorIS1_EEEEEES2_PT_PT0_, symObjAddr: 0x4E28, symBinAddr: 0x100008AC4, symSize: 0xA4 }
  - { offsetInCU: 0x15AE1, offset: 0x15AE1, size: 0x8, addend: 0x0, symName: __ZNSt3__120__shared_ptr_emplaceI9MemorySetNS_9allocatorIS1_EEE10__get_elemB7v160006Ev, symObjAddr: 0x4ECC, symBinAddr: 0x100008B68, symSize: 0x28 }
  - { offsetInCU: 0x15B07, offset: 0x15B07, size: 0x8, addend: 0x0, symName: __ZNSt3__118__allocation_guardINS_9allocatorINS_20__shared_ptr_emplaceI9MemorySetNS1_IS3_EEEEEEED1B7v160006Ev, symObjAddr: 0x4EF4, symBinAddr: 0x100008B90, symSize: 0x2C }
  - { offsetInCU: 0x15B31, offset: 0x15B31, size: 0x8, addend: 0x0, symName: __ZNSt3__118__allocation_guardINS_9allocatorINS_20__shared_ptr_emplaceI9MemorySetNS1_IS3_EEEEEEEC2B7v160006IS4_EET_m, symObjAddr: 0x4F20, symBinAddr: 0x100008BBC, symSize: 0x50 }
  - { offsetInCU: 0x15B80, offset: 0x15B80, size: 0x8, addend: 0x0, symName: __ZNSt3__19allocatorINS_20__shared_ptr_emplaceI9MemorySetNS0_IS2_EEEEEC1B7v160006IS2_EERKNS0_IT_EE, symObjAddr: 0x4F70, symBinAddr: 0x100008C0C, symSize: 0x34 }
  - { offsetInCU: 0x15BBD, offset: 0x15BBD, size: 0x8, addend: 0x0, symName: __ZNSt3__116allocator_traitsINS_9allocatorINS_20__shared_ptr_emplaceI9MemorySetNS1_IS3_EEEEEEE8allocateB7v160006ERS6_m, symObjAddr: 0x4FA4, symBinAddr: 0x100008C40, symSize: 0x2C }
  - { offsetInCU: 0x15BF0, offset: 0x15BF0, size: 0x8, addend: 0x0, symName: __ZNSt3__19allocatorINS_20__shared_ptr_emplaceI9MemorySetNS0_IS2_EEEEEC2B7v160006IS2_EERKNS0_IT_EE, symObjAddr: 0x4FD0, symBinAddr: 0x100008C6C, symSize: 0x30 }
  - { offsetInCU: 0x15C2D, offset: 0x15C2D, size: 0x8, addend: 0x0, symName: __ZNSt3__116__non_trivial_ifILb1ENS_9allocatorINS_20__shared_ptr_emplaceI9MemorySetNS1_IS3_EEEEEEEC2B7v160006Ev, symObjAddr: 0x5000, symBinAddr: 0x100008C9C, symSize: 0x14 }
  - { offsetInCU: 0x15C57, offset: 0x15C57, size: 0x8, addend: 0x0, symName: __ZNSt3__19allocatorINS_20__shared_ptr_emplaceI9MemorySetNS0_IS2_EEEEE8allocateB7v160006Em, symObjAddr: 0x5014, symBinAddr: 0x100008CB0, symSize: 0x5C }
  - { offsetInCU: 0x15C96, offset: 0x15C96, size: 0x8, addend: 0x0, symName: __ZNSt3__116allocator_traitsINS_9allocatorINS_20__shared_ptr_emplaceI9MemorySetNS1_IS3_EEEEEEE8max_sizeB7v160006IS6_vEEmRKS6_, symObjAddr: 0x5070, symBinAddr: 0x100008D0C, symSize: 0x24 }
  - { offsetInCU: 0x15CC4, offset: 0x15CC4, size: 0x8, addend: 0x0, symName: __ZNKSt3__19allocatorINS_20__shared_ptr_emplaceI9MemorySetNS0_IS2_EEEEE8max_sizeB7v160006Ev, symObjAddr: 0x5094, symBinAddr: 0x100008D30, symSize: 0x18 }
  - { offsetInCU: 0x15CEA, offset: 0x15CEA, size: 0x8, addend: 0x0, symName: __ZNSt3__120__shared_ptr_emplaceI9MemorySetNS_9allocatorIS1_EEEC2B7v160006IJEEES3_DpOT_, symObjAddr: 0x50AC, symBinAddr: 0x100008D48, symSize: 0xA0 }
  - { offsetInCU: 0x15D28, offset: 0x15D28, size: 0x8, addend: 0x0, symName: __ZNSt3__120__shared_ptr_emplaceI9MemorySetNS_9allocatorIS1_EEE8_StorageC1B7v160006EOS3_, symObjAddr: 0x514C, symBinAddr: 0x100008DE8, symSize: 0x34 }
  - { offsetInCU: 0x15D61, offset: 0x15D61, size: 0x8, addend: 0x0, symName: __ZN9MemorySetC1Ev, symObjAddr: 0x5180, symBinAddr: 0x100008E1C, symSize: 0x2C }
  - { offsetInCU: 0x15D8D, offset: 0x15D8D, size: 0x8, addend: 0x0, symName: __ZNSt3__120__shared_ptr_emplaceI9MemorySetNS_9allocatorIS1_EEED1Ev, symObjAddr: 0x51AC, symBinAddr: 0x100008E48, symSize: 0x2C }
  - { offsetInCU: 0x15DBA, offset: 0x15DBA, size: 0x8, addend: 0x0, symName: __ZNSt3__120__shared_ptr_emplaceI9MemorySetNS_9allocatorIS1_EEED0Ev, symObjAddr: 0x51D8, symBinAddr: 0x100008E74, symSize: 0x30 }
  - { offsetInCU: 0x15DE7, offset: 0x15DE7, size: 0x8, addend: 0x0, symName: __ZNSt3__120__shared_ptr_emplaceI9MemorySetNS_9allocatorIS1_EEE16__on_zero_sharedEv, symObjAddr: 0x5208, symBinAddr: 0x100008EA4, symSize: 0x30 }
  - { offsetInCU: 0x15E0D, offset: 0x15E0D, size: 0x8, addend: 0x0, symName: __ZNSt3__120__shared_ptr_emplaceI9MemorySetNS_9allocatorIS1_EEE21__on_zero_shared_weakEv, symObjAddr: 0x5238, symBinAddr: 0x100008ED4, symSize: 0x5C }
  - { offsetInCU: 0x15E4E, offset: 0x15E4E, size: 0x8, addend: 0x0, symName: __ZNSt3__120__shared_ptr_emplaceI9MemorySetNS_9allocatorIS1_EEE8_StorageC2B7v160006EOS3_, symObjAddr: 0x5294, symBinAddr: 0x100008F30, symSize: 0x30 }
  - { offsetInCU: 0x15E87, offset: 0x15E87, size: 0x8, addend: 0x0, symName: __ZNSt3__120__shared_ptr_emplaceI9MemorySetNS_9allocatorIS1_EEE8_Storage11__get_allocEv, symObjAddr: 0x52C4, symBinAddr: 0x100008F60, symSize: 0x3C }
  - { offsetInCU: 0x15EDA, offset: 0x15EDA, size: 0x8, addend: 0x0, symName: __ZNSt3__117__compressed_pairINS_9allocatorI9MemorySetEES2_E16__get_first_baseB7v160006EPS4_, symObjAddr: 0x5300, symBinAddr: 0x100008F9C, symSize: 0x14 }
  - { offsetInCU: 0x15EFD, offset: 0x15EFD, size: 0x8, addend: 0x0, symName: __ZN9MemorySetC2Ev, symObjAddr: 0x5314, symBinAddr: 0x100008FB0, symSize: 0x50 }
  - { offsetInCU: 0x15F29, offset: 0x15F29, size: 0x8, addend: 0x0, symName: __ZNSt3__15stackIiNS_5dequeIiNS_9allocatorIiEEEEEC1B7v160006Ev, symObjAddr: 0x5364, symBinAddr: 0x100009000, symSize: 0x2C }
  - { offsetInCU: 0x15F53, offset: 0x15F53, size: 0x8, addend: 0x0, symName: __ZN9MemorySet10addOperandEi, symObjAddr: 0x5390, symBinAddr: 0x10000902C, symSize: 0x34 }
  - { offsetInCU: 0x15F87, offset: 0x15F87, size: 0x8, addend: 0x0, symName: __ZN9MemorySet9getResultEv, symObjAddr: 0x53C4, symBinAddr: 0x100009060, symSize: 0x6C }
  - { offsetInCU: 0x15FBB, offset: 0x15FBB, size: 0x8, addend: 0x0, symName: __ZN9MemorySet11isCompletedEv, symObjAddr: 0x5430, symBinAddr: 0x1000090CC, symSize: 0x18 }
  - { offsetInCU: 0x15FE1, offset: 0x15FE1, size: 0x8, addend: 0x0, symName: __ZN9MemorySetD1Ev, symObjAddr: 0x5448, symBinAddr: 0x1000090E4, symSize: 0x2C }
  - { offsetInCU: 0x1600B, offset: 0x1600B, size: 0x8, addend: 0x0, symName: __ZN9MemorySetD0Ev, symObjAddr: 0x5474, symBinAddr: 0x100009110, symSize: 0x30 }
  - { offsetInCU: 0x16035, offset: 0x16035, size: 0x8, addend: 0x0, symName: __ZNSt3__15stackIiNS_5dequeIiNS_9allocatorIiEEEEEC2B7v160006Ev, symObjAddr: 0x54A4, symBinAddr: 0x100009140, symSize: 0x2C }
  - { offsetInCU: 0x1605F, offset: 0x1605F, size: 0x8, addend: 0x0, symName: __ZNSt3__15dequeIiNS_9allocatorIiEEEC1B7v160006Ev, symObjAddr: 0x54D0, symBinAddr: 0x10000916C, symSize: 0x2C }
  - { offsetInCU: 0x16089, offset: 0x16089, size: 0x8, addend: 0x0, symName: __ZNSt3__15dequeIiNS_9allocatorIiEEEC2B7v160006Ev, symObjAddr: 0x54FC, symBinAddr: 0x100009198, symSize: 0x50 }
  - { offsetInCU: 0x160B3, offset: 0x160B3, size: 0x8, addend: 0x0, symName: __ZNSt3__114__split_bufferIPiNS_9allocatorIS1_EEEC1Ev, symObjAddr: 0x554C, symBinAddr: 0x1000091E8, symSize: 0x2C }
  - { offsetInCU: 0x160DF, offset: 0x160DF, size: 0x8, addend: 0x0, symName: __ZNSt3__117__compressed_pairImNS_9allocatorIiEEEC1B7v160006IiNS_18__default_init_tagEEEOT_OT0_, symObjAddr: 0x5578, symBinAddr: 0x100009214, symSize: 0x3C }
  - { offsetInCU: 0x16137, offset: 0x16137, size: 0x8, addend: 0x0, symName: __ZNSt3__114__split_bufferIPiNS_9allocatorIS1_EEEC2Ev, symObjAddr: 0x55B4, symBinAddr: 0x100009250, symSize: 0x50 }
  - { offsetInCU: 0x16163, offset: 0x16163, size: 0x8, addend: 0x0, symName: __ZNSt3__117__compressed_pairIPPiNS_9allocatorIS1_EEEC1B7v160006IDnNS_18__default_init_tagEEEOT_OT0_, symObjAddr: 0x5604, symBinAddr: 0x1000092A0, symSize: 0x3C }
  - { offsetInCU: 0x161BB, offset: 0x161BB, size: 0x8, addend: 0x0, symName: __ZNSt3__117__compressed_pairIPPiNS_9allocatorIS1_EEEC2B7v160006IDnNS_18__default_init_tagEEEOT_OT0_, symObjAddr: 0x5640, symBinAddr: 0x1000092DC, symSize: 0x40 }
  - { offsetInCU: 0x16213, offset: 0x16213, size: 0x8, addend: 0x0, symName: __ZNSt3__122__compressed_pair_elemIPPiLi0ELb0EEC2B7v160006IDnvEEOT_, symObjAddr: 0x5680, symBinAddr: 0x10000931C, symSize: 0x1C }
  - { offsetInCU: 0x16255, offset: 0x16255, size: 0x8, addend: 0x0, symName: __ZNSt3__122__compressed_pair_elemINS_9allocatorIPiEELi1ELb1EEC2B7v160006ENS_18__default_init_tagE, symObjAddr: 0x569C, symBinAddr: 0x100009338, symSize: 0x2C }
  - { offsetInCU: 0x16289, offset: 0x16289, size: 0x8, addend: 0x0, symName: __ZNSt3__19allocatorIPiEC2B7v160006Ev, symObjAddr: 0x56C8, symBinAddr: 0x100009364, symSize: 0x2C }
  - { offsetInCU: 0x162B3, offset: 0x162B3, size: 0x8, addend: 0x0, symName: __ZNSt3__116__non_trivial_ifILb1ENS_9allocatorIPiEEEC2B7v160006Ev, symObjAddr: 0x56F4, symBinAddr: 0x100009390, symSize: 0x14 }
  - { offsetInCU: 0x162DD, offset: 0x162DD, size: 0x8, addend: 0x0, symName: __ZNSt3__117__compressed_pairImNS_9allocatorIiEEEC2B7v160006IiNS_18__default_init_tagEEEOT_OT0_, symObjAddr: 0x5708, symBinAddr: 0x1000093A4, symSize: 0x40 }
  - { offsetInCU: 0x16335, offset: 0x16335, size: 0x8, addend: 0x0, symName: __ZNSt3__122__compressed_pair_elemImLi0ELb0EEC2B7v160006IivEEOT_, symObjAddr: 0x5748, symBinAddr: 0x1000093E4, symSize: 0x24 }
  - { offsetInCU: 0x16377, offset: 0x16377, size: 0x8, addend: 0x0, symName: __ZNSt3__15stackIiNS_5dequeIiNS_9allocatorIiEEEEE4pushB7v160006ERKi, symObjAddr: 0x576C, symBinAddr: 0x100009408, symSize: 0x2C }
  - { offsetInCU: 0x163AB, offset: 0x163AB, size: 0x8, addend: 0x0, symName: __ZNSt3__15dequeIiNS_9allocatorIiEEE9push_backERKi, symObjAddr: 0x5798, symBinAddr: 0x100009434, symSize: 0xA0 }
  - { offsetInCU: 0x163F1, offset: 0x163F1, size: 0x8, addend: 0x0, symName: __ZNSt3__15dequeIiNS_9allocatorIiEEE7__allocB7v160006Ev, symObjAddr: 0x5838, symBinAddr: 0x1000094D4, symSize: 0x28 }
  - { offsetInCU: 0x16417, offset: 0x16417, size: 0x8, addend: 0x0, symName: __ZNKSt3__15dequeIiNS_9allocatorIiEEE12__back_spareB7v160006Ev, symObjAddr: 0x5860, symBinAddr: 0x1000094FC, symSize: 0x54 }
  - { offsetInCU: 0x1643D, offset: 0x1643D, size: 0x8, addend: 0x0, symName: __ZNSt3__15dequeIiNS_9allocatorIiEEE19__add_back_capacityEv, symObjAddr: 0x58B4, symBinAddr: 0x100009550, symSize: 0x314 }
  - { offsetInCU: 0x164F2, offset: 0x164F2, size: 0x8, addend: 0x0, symName: __ZNSt3__15dequeIiNS_9allocatorIiEEE3endB7v160006Ev, symObjAddr: 0x5BC8, symBinAddr: 0x100009864, symSize: 0xCC }
  - { offsetInCU: 0x16536, offset: 0x16536, size: 0x8, addend: 0x0, symName: __ZNKSt3__116__deque_iteratorIiPiRiPS1_lLl1024EEdeB7v160006Ev, symObjAddr: 0x5C94, symBinAddr: 0x100009930, symSize: 0x18 }
  - { offsetInCU: 0x1655C, offset: 0x1655C, size: 0x8, addend: 0x0, symName: __ZNSt3__15dequeIiNS_9allocatorIiEEE6__sizeB7v160006Ev, symObjAddr: 0x5CAC, symBinAddr: 0x100009948, symSize: 0x28 }
  - { offsetInCU: 0x16582, offset: 0x16582, size: 0x8, addend: 0x0, symName: __ZNSt3__117__compressed_pairImNS_9allocatorIiEEE6secondB7v160006Ev, symObjAddr: 0x5CD4, symBinAddr: 0x100009970, symSize: 0x24 }
  - { offsetInCU: 0x165A8, offset: 0x165A8, size: 0x8, addend: 0x0, symName: __ZNKSt3__15dequeIiNS_9allocatorIiEEE10__capacityB7v160006Ev, symObjAddr: 0x5CF8, symBinAddr: 0x100009994, symSize: 0x60 }
  - { offsetInCU: 0x165CE, offset: 0x165CE, size: 0x8, addend: 0x0, symName: __ZNKSt3__15dequeIiNS_9allocatorIiEEE4sizeB7v160006Ev, symObjAddr: 0x5D58, symBinAddr: 0x1000099F4, symSize: 0x28 }
  - { offsetInCU: 0x165F4, offset: 0x165F4, size: 0x8, addend: 0x0, symName: __ZNKSt3__114__split_bufferIPiNS_9allocatorIS1_EEE4sizeB7v160006Ev, symObjAddr: 0x5D80, symBinAddr: 0x100009A1C, symSize: 0x28 }
  - { offsetInCU: 0x1661A, offset: 0x1661A, size: 0x8, addend: 0x0, symName: __ZNKSt3__15dequeIiNS_9allocatorIiEEE6__sizeB7v160006Ev, symObjAddr: 0x5DA8, symBinAddr: 0x100009A44, symSize: 0x28 }
  - { offsetInCU: 0x16640, offset: 0x16640, size: 0x8, addend: 0x0, symName: __ZNKSt3__117__compressed_pairImNS_9allocatorIiEEE5firstB7v160006Ev, symObjAddr: 0x5DD0, symBinAddr: 0x100009A6C, symSize: 0x24 }
  - { offsetInCU: 0x16666, offset: 0x16666, size: 0x8, addend: 0x0, symName: __ZNKSt3__122__compressed_pair_elemImLi0ELb0EE5__getB7v160006Ev, symObjAddr: 0x5DF4, symBinAddr: 0x100009A90, symSize: 0x14 }
  - { offsetInCU: 0x1668C, offset: 0x1668C, size: 0x8, addend: 0x0, symName: __ZNKSt3__15dequeIiNS_9allocatorIiEEE13__front_spareB7v160006Ev, symObjAddr: 0x5E08, symBinAddr: 0x100009AA4, symSize: 0x18 }
  - { offsetInCU: 0x166B2, offset: 0x166B2, size: 0x8, addend: 0x0, symName: __ZNSt3__114__split_bufferIPiNS_9allocatorIS1_EEE5frontB7v160006Ev, symObjAddr: 0x5E20, symBinAddr: 0x100009ABC, symSize: 0x18 }
  - { offsetInCU: 0x166D8, offset: 0x166D8, size: 0x8, addend: 0x0, symName: __ZNSt3__114__split_bufferIPiNS_9allocatorIS1_EEE9pop_frontB7v160006Ev, symObjAddr: 0x5E38, symBinAddr: 0x100009AD4, symSize: 0x2C }
  - { offsetInCU: 0x166FE, offset: 0x166FE, size: 0x8, addend: 0x0, symName: __ZNSt3__114__split_bufferIPiNS_9allocatorIS1_EEE9push_backB7v160006ERKS1_, symObjAddr: 0x5E64, symBinAddr: 0x100009B00, symSize: 0x260 }
  - { offsetInCU: 0x16776, offset: 0x16776, size: 0x8, addend: 0x0, symName: __ZNKSt3__114__split_bufferIPiNS_9allocatorIS1_EEE8capacityB7v160006Ev, symObjAddr: 0x60C4, symBinAddr: 0x100009D60, symSize: 0x40 }
  - { offsetInCU: 0x1679C, offset: 0x1679C, size: 0x8, addend: 0x0, symName: __ZNKSt3__114__split_bufferIPiNS_9allocatorIS1_EEE12__back_spareB7v160006Ev, symObjAddr: 0x6104, symBinAddr: 0x100009DA0, symSize: 0x40 }
  - { offsetInCU: 0x167C2, offset: 0x167C2, size: 0x8, addend: 0x0, symName: __ZNSt3__114__split_bufferIPiNS_9allocatorIS1_EEE9push_backEOS1_, symObjAddr: 0x6144, symBinAddr: 0x100009DE0, symSize: 0x260 }
  - { offsetInCU: 0x1683A, offset: 0x1683A, size: 0x8, addend: 0x0, symName: __ZNSt3__116allocator_traitsINS_9allocatorIiEEE8allocateB7v160006ERS2_m, symObjAddr: 0x63A4, symBinAddr: 0x10000A040, symSize: 0x2C }
  - { offsetInCU: 0x1686D, offset: 0x1686D, size: 0x8, addend: 0x0, symName: __ZNSt3__114__split_bufferIPiNS_9allocatorIS1_EEE10push_frontEOS1_, symObjAddr: 0x63D0, symBinAddr: 0x10000A06C, symSize: 0x25C }
  - { offsetInCU: 0x168E5, offset: 0x168E5, size: 0x8, addend: 0x0, symName: __ZNSt3__114__split_bufferIPiNS_9allocatorIS1_EEE7__allocB7v160006Ev, symObjAddr: 0x662C, symBinAddr: 0x10000A2C8, symSize: 0x28 }
  - { offsetInCU: 0x1690B, offset: 0x1690B, size: 0x8, addend: 0x0, symName: __ZNSt3__114__split_bufferIPiRNS_9allocatorIS1_EEEC1EmmS4_, symObjAddr: 0x6654, symBinAddr: 0x10000A2F0, symSize: 0x44 }
  - { offsetInCU: 0x16966, offset: 0x16966, size: 0x8, addend: 0x0, symName: __ZNSt3__122__allocator_destructorINS_9allocatorIiEEEC1B7v160006ERS2_m, symObjAddr: 0x6698, symBinAddr: 0x10000A334, symSize: 0x3C }
  - { offsetInCU: 0x16A1D, offset: 0x16A1D, size: 0x8, addend: 0x0, symName: __ZNSt3__110unique_ptrIPiNS_22__allocator_destructorINS_9allocatorIiEEEEEC1B7v160006ILb1EvEES1_NS_16__dependent_typeINS_27__unique_ptr_deleter_sfinaeIS5_EEXT_EE20__good_rval_ref_typeE, symObjAddr: 0x66D4, symBinAddr: 0x10000A370, symSize: 0x3C }
  - { offsetInCU: 0x16A6E, offset: 0x16A6E, size: 0x8, addend: 0x0, symName: __ZNSt3__114__split_bufferIPiRNS_9allocatorIS1_EEE9push_backEOS1_, symObjAddr: 0x6710, symBinAddr: 0x10000A3AC, symSize: 0x260 }
  - { offsetInCU: 0x16AE6, offset: 0x16AE6, size: 0x8, addend: 0x0, symName: __ZNKSt3__110unique_ptrIPiNS_22__allocator_destructorINS_9allocatorIiEEEEE3getB7v160006Ev, symObjAddr: 0x6970, symBinAddr: 0x10000A60C, symSize: 0x28 }
  - { offsetInCU: 0x16B0C, offset: 0x16B0C, size: 0x8, addend: 0x0, symName: __ZNSt3__110unique_ptrIPiNS_22__allocator_destructorINS_9allocatorIiEEEEE7releaseB7v160006Ev, symObjAddr: 0x6998, symBinAddr: 0x10000A634, symSize: 0x44 }
  - { offsetInCU: 0x16B41, offset: 0x16B41, size: 0x8, addend: 0x0, symName: __ZNSt3__114__split_bufferIPiNS_9allocatorIS1_EEE3endB7v160006Ev, symObjAddr: 0x69DC, symBinAddr: 0x10000A678, symSize: 0x18 }
  - { offsetInCU: 0x16B67, offset: 0x16B67, size: 0x8, addend: 0x0, symName: __ZNSt3__114__split_bufferIPiNS_9allocatorIS1_EEE5beginB7v160006Ev, symObjAddr: 0x69F4, symBinAddr: 0x10000A690, symSize: 0x18 }
  - { offsetInCU: 0x16B8D, offset: 0x16B8D, size: 0x8, addend: 0x0, symName: __ZNSt3__114__split_bufferIPiRNS_9allocatorIS1_EEE10push_frontERKS1_, symObjAddr: 0x6A0C, symBinAddr: 0x10000A6A8, symSize: 0x25C }
  - { offsetInCU: 0x16C05, offset: 0x16C05, size: 0x8, addend: 0x0, symName: __ZNSt3__114__split_bufferIPiNS_9allocatorIS1_EEE9__end_capB7v160006Ev, symObjAddr: 0x6CA4, symBinAddr: 0x10000A940, symSize: 0x28 }
  - { offsetInCU: 0x16C2B, offset: 0x16C2B, size: 0x8, addend: 0x0, symName: __ZNSt3__114__split_bufferIPiRNS_9allocatorIS1_EEE9__end_capB7v160006Ev, symObjAddr: 0x6CCC, symBinAddr: 0x10000A968, symSize: 0x28 }
  - { offsetInCU: 0x16C51, offset: 0x16C51, size: 0x8, addend: 0x0, symName: __ZNSt3__110unique_ptrIPiNS_22__allocator_destructorINS_9allocatorIiEEEEED1B7v160006Ev, symObjAddr: 0x6CF4, symBinAddr: 0x10000A990, symSize: 0x2C }
  - { offsetInCU: 0x16C7B, offset: 0x16C7B, size: 0x8, addend: 0x0, symName: __ZNSt3__114__split_bufferIPiRNS_9allocatorIS1_EEED1Ev, symObjAddr: 0x6D20, symBinAddr: 0x10000A9BC, symSize: 0x2C }
  - { offsetInCU: 0x16CA7, offset: 0x16CA7, size: 0x8, addend: 0x0, symName: __ZNSt3__114__split_bufferIPiNS_9allocatorIS1_EEE19__destruct_at_beginB7v160006EPS1_, symObjAddr: 0x6D4C, symBinAddr: 0x10000A9E8, symSize: 0x2C }
  - { offsetInCU: 0x16CDB, offset: 0x16CDB, size: 0x8, addend: 0x0, symName: __ZNSt3__114__split_bufferIPiNS_9allocatorIS1_EEE19__destruct_at_beginEPS1_NS_17integral_constantIbLb1EEE, symObjAddr: 0x6D78, symBinAddr: 0x10000AA14, symSize: 0x20 }
  - { offsetInCU: 0x16D1B, offset: 0x16D1B, size: 0x8, addend: 0x0, symName: __ZNSt3__114__split_bufferIPiRNS_9allocatorIS1_EEE18__construct_at_endINS_13move_iteratorIPS1_EEEENS_9enable_ifIXsr27__is_cpp17_forward_iteratorIT_EE5valueEvE4typeESB_SB_, symObjAddr: 0x6DD8, symBinAddr: 0x10000AA74, symSize: 0xFC }
  - { offsetInCU: 0x16D77, offset: 0x16D77, size: 0x8, addend: 0x0, symName: __ZNSt3__113move_iteratorIPPiEC1B7v160006ES2_, symObjAddr: 0x6ED4, symBinAddr: 0x10000AB70, symSize: 0x34 }
  - { offsetInCU: 0x16DAF, offset: 0x16DAF, size: 0x8, addend: 0x0, symName: __ZNSt3__116allocator_traitsINS_9allocatorIPiEEE9constructB7v160006IS2_JRKS2_EvEEvRS3_PT_DpOT0_, symObjAddr: 0x6F08, symBinAddr: 0x10000ABA4, symSize: 0x34 }
  - { offsetInCU: 0x16E2C, offset: 0x16E2C, size: 0x8, addend: 0x0, symName: __ZNKSt3__114__move_trivialclB7v160006IPiS2_Li0EEENS_4pairIPT_PT0_EES5_S5_S7_, symObjAddr: 0x70EC, symBinAddr: 0x10000AD88, symSize: 0x48 }
  - { offsetInCU: 0x16E9A, offset: 0x16E9A, size: 0x8, addend: 0x0, symName: __ZNSt3__14pairIPPiS2_EC1B7v160006IRS2_S2_LPv0EEEOT_OT0_, symObjAddr: 0x72B4, symBinAddr: 0x10000AF50, symSize: 0x3C }
  - { offsetInCU: 0x16EF8, offset: 0x16EF8, size: 0x8, addend: 0x0, symName: __ZNSt3__14pairIPPiS2_EC2B7v160006IRS2_S2_LPv0EEEOT_OT0_, symObjAddr: 0x72F0, symBinAddr: 0x10000AF8C, symSize: 0x34 }
  - { offsetInCU: 0x16F56, offset: 0x16F56, size: 0x8, addend: 0x0, symName: __ZNSt3__118__unwrap_iter_implIPPiLb1EE8__unwrapB7v160006ES2_, symObjAddr: 0x7324, symBinAddr: 0x10000AFC0, symSize: 0x24 }
  - { offsetInCU: 0x16F79, offset: 0x16F79, size: 0x8, addend: 0x0, symName: __ZNSt3__14pairIPPiS2_EC1B7v160006IS2_S2_LPv0EEEOT_OT0_, symObjAddr: 0x7348, symBinAddr: 0x10000AFE4, symSize: 0x3C }
  - { offsetInCU: 0x16FD7, offset: 0x16FD7, size: 0x8, addend: 0x0, symName: __ZNSt3__14pairIPPiS2_EC2B7v160006IS2_S2_LPv0EEEOT_OT0_, symObjAddr: 0x7384, symBinAddr: 0x10000B020, symSize: 0x34 }
  - { offsetInCU: 0x17035, offset: 0x17035, size: 0x8, addend: 0x0, symName: __ZNSt3__118__unwrap_iter_implIPPiLb1EE8__rewrapB7v160006ES2_S2_, symObjAddr: 0x73B8, symBinAddr: 0x10000B054, symSize: 0x50 }
  - { offsetInCU: 0x17070, offset: 0x17070, size: 0x8, addend: 0x0, symName: __ZNSt3__114__split_bufferIPiRNS_9allocatorIS1_EEE21_ConstructTransactionC1B7v160006EPPS1_m, symObjAddr: 0x7444, symBinAddr: 0x10000B0E0, symSize: 0x3C }
  - { offsetInCU: 0x170B6, offset: 0x170B6, size: 0x8, addend: 0x0, symName: __ZNSt3__116allocator_traitsINS_9allocatorIPiEEE9constructB7v160006IS2_JS2_EvEEvRS3_PT_DpOT0_, symObjAddr: 0x7480, symBinAddr: 0x10000B11C, symSize: 0x34 }
  - { offsetInCU: 0x1710D, offset: 0x1710D, size: 0x8, addend: 0x0, symName: __ZNSt3__114__split_bufferIPiRNS_9allocatorIS1_EEE7__allocB7v160006Ev, symObjAddr: 0x74B4, symBinAddr: 0x10000B150, symSize: 0x28 }
  - { offsetInCU: 0x17133, offset: 0x17133, size: 0x8, addend: 0x0, symName: __ZNKSt3__113move_iteratorIPPiEdeB7v160006Ev, symObjAddr: 0x74DC, symBinAddr: 0x10000B178, symSize: 0x18 }
  - { offsetInCU: 0x17159, offset: 0x17159, size: 0x8, addend: 0x0, symName: __ZNSt3__113move_iteratorIPPiEppB7v160006Ev, symObjAddr: 0x74F4, symBinAddr: 0x10000B190, symSize: 0x20 }
  - { offsetInCU: 0x1717F, offset: 0x1717F, size: 0x8, addend: 0x0, symName: __ZNSt3__114__split_bufferIPiRNS_9allocatorIS1_EEE21_ConstructTransactionD1B7v160006Ev, symObjAddr: 0x7514, symBinAddr: 0x10000B1B0, symSize: 0x2C }
  - { offsetInCU: 0x171A9, offset: 0x171A9, size: 0x8, addend: 0x0, symName: __ZNKSt3__113move_iteratorIPPiE4baseB7v160006Ev, symObjAddr: 0x75B8, symBinAddr: 0x10000B254, symSize: 0x18 }
  - { offsetInCU: 0x171CF, offset: 0x171CF, size: 0x8, addend: 0x0, symName: __ZNSt3__114__split_bufferIPiRNS_9allocatorIS1_EEE21_ConstructTransactionC2B7v160006EPPS1_m, symObjAddr: 0x75D0, symBinAddr: 0x10000B26C, symSize: 0x44 }
  - { offsetInCU: 0x17215, offset: 0x17215, size: 0x8, addend: 0x0, symName: __ZNSt3__19allocatorIPiE9constructB7v160006IS1_JS1_EEEvPT_DpOT0_, symObjAddr: 0x7614, symBinAddr: 0x10000B2B0, symSize: 0x28 }
  - { offsetInCU: 0x1726B, offset: 0x1726B, size: 0x8, addend: 0x0, symName: __ZNSt3__117__compressed_pairIPPiRNS_9allocatorIS1_EEE6secondB7v160006Ev, symObjAddr: 0x763C, symBinAddr: 0x10000B2D8, symSize: 0x28 }
  - { offsetInCU: 0x17291, offset: 0x17291, size: 0x8, addend: 0x0, symName: __ZNSt3__122__compressed_pair_elemIRNS_9allocatorIPiEELi1ELb0EE5__getB7v160006Ev, symObjAddr: 0x7664, symBinAddr: 0x10000B300, symSize: 0x18 }
  - { offsetInCU: 0x172B7, offset: 0x172B7, size: 0x8, addend: 0x0, symName: __ZNSt3__114__split_bufferIPiRNS_9allocatorIS1_EEE21_ConstructTransactionD2B7v160006Ev, symObjAddr: 0x767C, symBinAddr: 0x10000B318, symSize: 0x20 }
  - { offsetInCU: 0x172E1, offset: 0x172E1, size: 0x8, addend: 0x0, symName: __ZNSt3__113move_iteratorIPPiEC2B7v160006ES2_, symObjAddr: 0x769C, symBinAddr: 0x10000B338, symSize: 0x20 }
  - { offsetInCU: 0x17319, offset: 0x17319, size: 0x8, addend: 0x0, symName: __ZNSt3__19allocatorIPiE9constructB7v160006IS1_JRKS1_EEEvPT_DpOT0_, symObjAddr: 0x76BC, symBinAddr: 0x10000B358, symSize: 0x28 }
  - { offsetInCU: 0x1736F, offset: 0x1736F, size: 0x8, addend: 0x0, symName: __ZNKSt3__114__split_bufferIPiNS_9allocatorIS1_EEE9__end_capB7v160006Ev, symObjAddr: 0x76E4, symBinAddr: 0x10000B380, symSize: 0x28 }
  - { offsetInCU: 0x17395, offset: 0x17395, size: 0x8, addend: 0x0, symName: __ZNKSt3__117__compressed_pairIPPiNS_9allocatorIS1_EEE5firstB7v160006Ev, symObjAddr: 0x770C, symBinAddr: 0x10000B3A8, symSize: 0x24 }
  - { offsetInCU: 0x173BB, offset: 0x173BB, size: 0x8, addend: 0x0, symName: __ZNKSt3__122__compressed_pair_elemIPPiLi0ELb0EE5__getB7v160006Ev, symObjAddr: 0x7730, symBinAddr: 0x10000B3CC, symSize: 0x14 }
  - { offsetInCU: 0x173EB, offset: 0x173EB, size: 0x8, addend: 0x0, symName: __ZNKSt3__123__move_backward_trivialclB7v160006IPiS2_Li0EEENS_4pairIPT_PT0_EES5_S5_S7_, symObjAddr: 0x78C0, symBinAddr: 0x10000B55C, symSize: 0x48 }
  - { offsetInCU: 0x17453, offset: 0x17453, size: 0x8, addend: 0x0, symName: __ZNSt3__14pairIPPiS2_EC1B7v160006IRS2_S5_LPv0EEEOT_OT0_, symObjAddr: 0x79D4, symBinAddr: 0x10000B670, symSize: 0x3C }
  - { offsetInCU: 0x174B1, offset: 0x174B1, size: 0x8, addend: 0x0, symName: __ZNSt3__14pairIPPiS2_EC2B7v160006IRS2_S5_LPv0EEEOT_OT0_, symObjAddr: 0x7A10, symBinAddr: 0x10000B6AC, symSize: 0x34 }
  - { offsetInCU: 0x1750F, offset: 0x1750F, size: 0x8, addend: 0x0, symName: __ZNSt3__117__compressed_pairIPPiNS_9allocatorIS1_EEE6secondB7v160006Ev, symObjAddr: 0x7A44, symBinAddr: 0x10000B6E0, symSize: 0x24 }
  - { offsetInCU: 0x17535, offset: 0x17535, size: 0x8, addend: 0x0, symName: __ZNSt3__122__compressed_pair_elemINS_9allocatorIPiEELi1ELb1EE5__getB7v160006Ev, symObjAddr: 0x7A68, symBinAddr: 0x10000B704, symSize: 0x14 }
  - { offsetInCU: 0x1755B, offset: 0x1755B, size: 0x8, addend: 0x0, symName: __ZNSt3__114__split_bufferIPiRNS_9allocatorIS1_EEEC2EmmS4_, symObjAddr: 0x7A7C, symBinAddr: 0x10000B718, symSize: 0xD4 }
  - { offsetInCU: 0x175CE, offset: 0x175CE, size: 0x8, addend: 0x0, symName: __ZNSt3__117__compressed_pairIPPiRNS_9allocatorIS1_EEEC1B7v160006IDnS5_EEOT_OT0_, symObjAddr: 0x7B50, symBinAddr: 0x10000B7EC, symSize: 0x3C }
  - { offsetInCU: 0x17626, offset: 0x17626, size: 0x8, addend: 0x0, symName: __ZNSt3__117__compressed_pairIPPiRNS_9allocatorIS1_EEEC2B7v160006IDnS5_EEOT_OT0_, symObjAddr: 0x7BCC, symBinAddr: 0x10000B868, symSize: 0x48 }
  - { offsetInCU: 0x1767E, offset: 0x1767E, size: 0x8, addend: 0x0, symName: __ZNSt3__122__compressed_pair_elemIRNS_9allocatorIPiEELi1ELb0EEC2B7v160006IS4_vEEOT_, symObjAddr: 0x7C14, symBinAddr: 0x10000B8B0, symSize: 0x20 }
  - { offsetInCU: 0x176C0, offset: 0x176C0, size: 0x8, addend: 0x0, symName: __ZNSt3__19allocatorIPiE8allocateB7v160006Em, symObjAddr: 0x7C34, symBinAddr: 0x10000B8D0, symSize: 0x58 }
  - { offsetInCU: 0x176FF, offset: 0x176FF, size: 0x8, addend: 0x0, symName: __ZNSt3__116allocator_traitsINS_9allocatorIPiEEE8max_sizeB7v160006IS3_vEEmRKS3_, symObjAddr: 0x7C8C, symBinAddr: 0x10000B928, symSize: 0x24 }
  - { offsetInCU: 0x1772D, offset: 0x1772D, size: 0x8, addend: 0x0, symName: __ZNKSt3__19allocatorIPiE8max_sizeB7v160006Ev, symObjAddr: 0x7CB0, symBinAddr: 0x10000B94C, symSize: 0x14 }
  - { offsetInCU: 0x17753, offset: 0x17753, size: 0x8, addend: 0x0, symName: __ZNSt3__122__allocator_destructorINS_9allocatorIiEEEC2B7v160006ERS2_m, symObjAddr: 0x7CC4, symBinAddr: 0x10000B960, symSize: 0x2C }
  - { offsetInCU: 0x17799, offset: 0x17799, size: 0x8, addend: 0x0, symName: __ZNSt3__110unique_ptrIPiNS_22__allocator_destructorINS_9allocatorIiEEEEEC2B7v160006ILb1EvEES1_NS_16__dependent_typeINS_27__unique_ptr_deleter_sfinaeIS5_EEXT_EE20__good_rval_ref_typeE, symObjAddr: 0x7CF0, symBinAddr: 0x10000B98C, symSize: 0x48 }
  - { offsetInCU: 0x177EA, offset: 0x177EA, size: 0x8, addend: 0x0, symName: __ZNSt3__117__compressed_pairIPiNS_22__allocator_destructorINS_9allocatorIiEEEEEC1B7v160006IRS1_S5_EEOT_OT0_, symObjAddr: 0x7D38, symBinAddr: 0x10000B9D4, symSize: 0x3C }
  - { offsetInCU: 0x17842, offset: 0x17842, size: 0x8, addend: 0x0, symName: __ZNSt3__117__compressed_pairIPiNS_22__allocator_destructorINS_9allocatorIiEEEEEC2B7v160006IRS1_S5_EEOT_OT0_, symObjAddr: 0x7D74, symBinAddr: 0x10000BA10, symSize: 0x48 }
  - { offsetInCU: 0x1789A, offset: 0x1789A, size: 0x8, addend: 0x0, symName: __ZNSt3__122__compressed_pair_elemIPiLi0ELb0EEC2B7v160006IRS1_vEEOT_, symObjAddr: 0x7DBC, symBinAddr: 0x10000BA58, symSize: 0x24 }
  - { offsetInCU: 0x178DC, offset: 0x178DC, size: 0x8, addend: 0x0, symName: __ZNSt3__122__compressed_pair_elemINS_22__allocator_destructorINS_9allocatorIiEEEELi1ELb0EEC2B7v160006IS4_vEEOT_, symObjAddr: 0x7DE0, symBinAddr: 0x10000BA7C, symSize: 0x24 }
  - { offsetInCU: 0x1791E, offset: 0x1791E, size: 0x8, addend: 0x0, symName: __ZNKSt3__117__compressed_pairIPiNS_22__allocator_destructorINS_9allocatorIiEEEEE5firstB7v160006Ev, symObjAddr: 0x7E04, symBinAddr: 0x10000BAA0, symSize: 0x24 }
  - { offsetInCU: 0x17944, offset: 0x17944, size: 0x8, addend: 0x0, symName: __ZNSt3__117__compressed_pairIPiNS_22__allocator_destructorINS_9allocatorIiEEEEE5firstB7v160006Ev, symObjAddr: 0x7E28, symBinAddr: 0x10000BAC4, symSize: 0x24 }
  - { offsetInCU: 0x1796A, offset: 0x1796A, size: 0x8, addend: 0x0, symName: __ZNSt3__117__compressed_pairIPPiNS_9allocatorIS1_EEE5firstB7v160006Ev, symObjAddr: 0x7E4C, symBinAddr: 0x10000BAE8, symSize: 0x24 }
  - { offsetInCU: 0x17990, offset: 0x17990, size: 0x8, addend: 0x0, symName: __ZNSt3__122__compressed_pair_elemIPPiLi0ELb0EE5__getB7v160006Ev, symObjAddr: 0x7E70, symBinAddr: 0x10000BB0C, symSize: 0x14 }
  - { offsetInCU: 0x179B6, offset: 0x179B6, size: 0x8, addend: 0x0, symName: __ZNSt3__117__compressed_pairIPPiRNS_9allocatorIS1_EEE5firstB7v160006Ev, symObjAddr: 0x7E84, symBinAddr: 0x10000BB20, symSize: 0x24 }
  - { offsetInCU: 0x179DC, offset: 0x179DC, size: 0x8, addend: 0x0, symName: __ZNSt3__110unique_ptrIPiNS_22__allocator_destructorINS_9allocatorIiEEEEED2B7v160006Ev, symObjAddr: 0x7EA8, symBinAddr: 0x10000BB44, symSize: 0x30 }
  - { offsetInCU: 0x17A06, offset: 0x17A06, size: 0x8, addend: 0x0, symName: __ZNSt3__110unique_ptrIPiNS_22__allocator_destructorINS_9allocatorIiEEEEE5resetB7v160006ES1_, symObjAddr: 0x7ED8, symBinAddr: 0x10000BB74, symSize: 0x78 }
  - { offsetInCU: 0x17A4A, offset: 0x17A4A, size: 0x8, addend: 0x0, symName: __ZNSt3__117__compressed_pairIPiNS_22__allocator_destructorINS_9allocatorIiEEEEE6secondB7v160006Ev, symObjAddr: 0x7F50, symBinAddr: 0x10000BBEC, symSize: 0x28 }
  - { offsetInCU: 0x17A70, offset: 0x17A70, size: 0x8, addend: 0x0, symName: __ZNSt3__122__allocator_destructorINS_9allocatorIiEEEclB7v160006EPi, symObjAddr: 0x7F78, symBinAddr: 0x10000BC14, symSize: 0x34 }
  - { offsetInCU: 0x17AA4, offset: 0x17AA4, size: 0x8, addend: 0x0, symName: __ZNSt3__122__compressed_pair_elemINS_22__allocator_destructorINS_9allocatorIiEEEELi1ELb0EE5__getB7v160006Ev, symObjAddr: 0x7FAC, symBinAddr: 0x10000BC48, symSize: 0x14 }
  - { offsetInCU: 0x17ACA, offset: 0x17ACA, size: 0x8, addend: 0x0, symName: __ZNSt3__114__split_bufferIPiRNS_9allocatorIS1_EEED2Ev, symObjAddr: 0x7FC0, symBinAddr: 0x10000BC5C, symSize: 0x8C }
  - { offsetInCU: 0x17AF6, offset: 0x17AF6, size: 0x8, addend: 0x0, symName: __ZNSt3__114__split_bufferIPiRNS_9allocatorIS1_EEE5clearB7v160006Ev, symObjAddr: 0x804C, symBinAddr: 0x10000BCE8, symSize: 0x28 }
  - { offsetInCU: 0x17B1C, offset: 0x17B1C, size: 0x8, addend: 0x0, symName: __ZNSt3__116allocator_traitsINS_9allocatorIPiEEE10deallocateB7v160006ERS3_PS2_m, symObjAddr: 0x8074, symBinAddr: 0x10000BD10, symSize: 0x34 }
  - { offsetInCU: 0x17B5E, offset: 0x17B5E, size: 0x8, addend: 0x0, symName: __ZNKSt3__114__split_bufferIPiRNS_9allocatorIS1_EEE8capacityB7v160006Ev, symObjAddr: 0x80A8, symBinAddr: 0x10000BD44, symSize: 0x40 }
  - { offsetInCU: 0x17B84, offset: 0x17B84, size: 0x8, addend: 0x0, symName: __ZNSt3__114__split_bufferIPiRNS_9allocatorIS1_EEE17__destruct_at_endB7v160006EPS1_, symObjAddr: 0x80E8, symBinAddr: 0x10000BD84, symSize: 0x2C }
  - { offsetInCU: 0x17BB8, offset: 0x17BB8, size: 0x8, addend: 0x0, symName: __ZNSt3__114__split_bufferIPiRNS_9allocatorIS1_EEE17__destruct_at_endB7v160006EPS1_NS_17integral_constantIbLb0EEE, symObjAddr: 0x8114, symBinAddr: 0x10000BDB0, symSize: 0x80 }
  - { offsetInCU: 0x17BF8, offset: 0x17BF8, size: 0x8, addend: 0x0, symName: __ZNSt3__116allocator_traitsINS_9allocatorIPiEEE7destroyB7v160006IS2_vEEvRS3_PT_, symObjAddr: 0x8194, symBinAddr: 0x10000BE30, symSize: 0x2C }
  - { offsetInCU: 0x17C35, offset: 0x17C35, size: 0x8, addend: 0x0, symName: __ZNSt3__19allocatorIPiE7destroyB7v160006EPS1_, symObjAddr: 0x81C0, symBinAddr: 0x10000BE5C, symSize: 0x14 }
  - { offsetInCU: 0x17C69, offset: 0x17C69, size: 0x8, addend: 0x0, symName: __ZNSt3__19allocatorIPiE10deallocateB7v160006EPS1_m, symObjAddr: 0x81D4, symBinAddr: 0x10000BE70, symSize: 0x40 }
  - { offsetInCU: 0x17CAB, offset: 0x17CAB, size: 0x8, addend: 0x0, symName: __ZNKSt3__114__split_bufferIPiRNS_9allocatorIS1_EEE9__end_capB7v160006Ev, symObjAddr: 0x8214, symBinAddr: 0x10000BEB0, symSize: 0x28 }
  - { offsetInCU: 0x17CD1, offset: 0x17CD1, size: 0x8, addend: 0x0, symName: __ZNKSt3__117__compressed_pairIPPiRNS_9allocatorIS1_EEE5firstB7v160006Ev, symObjAddr: 0x823C, symBinAddr: 0x10000BED8, symSize: 0x24 }
  - { offsetInCU: 0x17CF7, offset: 0x17CF7, size: 0x8, addend: 0x0, symName: __ZNKSt3__114__split_bufferIPiNS_9allocatorIS1_EEE5emptyB7v160006Ev, symObjAddr: 0x8260, symBinAddr: 0x10000BEFC, symSize: 0x28 }
  - { offsetInCU: 0x17D1D, offset: 0x17D1D, size: 0x8, addend: 0x0, symName: __ZNSt3__116__deque_iteratorIiPiRiPS1_lLl1024EEC1B7v160006ES3_S1_, symObjAddr: 0x8288, symBinAddr: 0x10000BF24, symSize: 0x3C }
  - { offsetInCU: 0x17D65, offset: 0x17D65, size: 0x8, addend: 0x0, symName: __ZNSt3__116__deque_iteratorIiPiRiPS1_lLl1024EEC2B7v160006ES3_S1_, symObjAddr: 0x82C4, symBinAddr: 0x10000BF60, symSize: 0x2C }
  - { offsetInCU: 0x17DAD, offset: 0x17DAD, size: 0x8, addend: 0x0, symName: __ZNSt3__117__compressed_pairImNS_9allocatorIiEEE5firstB7v160006Ev, symObjAddr: 0x82F0, symBinAddr: 0x10000BF8C, symSize: 0x24 }
  - { offsetInCU: 0x17DD3, offset: 0x17DD3, size: 0x8, addend: 0x0, symName: __ZNSt3__122__compressed_pair_elemImLi0ELb0EE5__getB7v160006Ev, symObjAddr: 0x8314, symBinAddr: 0x10000BFB0, symSize: 0x14 }
  - { offsetInCU: 0x17DF9, offset: 0x17DF9, size: 0x8, addend: 0x0, symName: __ZNKSt3__15stackIiNS_5dequeIiNS_9allocatorIiEEEEE5emptyB7v160006Ev, symObjAddr: 0x8328, symBinAddr: 0x10000BFC4, symSize: 0x28 }
  - { offsetInCU: 0x17E1F, offset: 0x17E1F, size: 0x8, addend: 0x0, symName: __ZNSt3__15stackIiNS_5dequeIiNS_9allocatorIiEEEEE3topB7v160006Ev, symObjAddr: 0x8350, symBinAddr: 0x10000BFEC, symSize: 0x24 }
  - { offsetInCU: 0x17E45, offset: 0x17E45, size: 0x8, addend: 0x0, symName: __ZNKSt3__15dequeIiNS_9allocatorIiEEE5emptyB7v160006Ev, symObjAddr: 0x8374, symBinAddr: 0x10000C010, symSize: 0x30 }
  - { offsetInCU: 0x17E6B, offset: 0x17E6B, size: 0x8, addend: 0x0, symName: __ZNSt3__15dequeIiNS_9allocatorIiEEE4backEv, symObjAddr: 0x83A4, symBinAddr: 0x10000C040, symSize: 0x68 }
  - { offsetInCU: 0x17EA2, offset: 0x17EA2, size: 0x8, addend: 0x0, symName: __ZN9MemorySetD2Ev, symObjAddr: 0x840C, symBinAddr: 0x10000C0A8, symSize: 0x48 }
  - { offsetInCU: 0x17ECC, offset: 0x17ECC, size: 0x8, addend: 0x0, symName: __ZNSt3__15stackIiNS_5dequeIiNS_9allocatorIiEEEEED1Ev, symObjAddr: 0x8454, symBinAddr: 0x10000C0F0, symSize: 0x2C }
  - { offsetInCU: 0x17EF8, offset: 0x17EF8, size: 0x8, addend: 0x0, symName: __ZNSt3__15stackIiNS_5dequeIiNS_9allocatorIiEEEEED2Ev, symObjAddr: 0x8480, symBinAddr: 0x10000C11C, symSize: 0x2C }
  - { offsetInCU: 0x17F24, offset: 0x17F24, size: 0x8, addend: 0x0, symName: __ZNSt3__15dequeIiNS_9allocatorIiEEED1B7v160006Ev, symObjAddr: 0x84AC, symBinAddr: 0x10000C148, symSize: 0x2C }
  - { offsetInCU: 0x17F4E, offset: 0x17F4E, size: 0x8, addend: 0x0, symName: __ZNSt3__15dequeIiNS_9allocatorIiEEED2B7v160006Ev, symObjAddr: 0x84D8, symBinAddr: 0x10000C174, symSize: 0x9C }
  - { offsetInCU: 0x17FA4, offset: 0x17FA4, size: 0x8, addend: 0x0, symName: __ZNSt3__15dequeIiNS_9allocatorIiEEE5clearEv, symObjAddr: 0x8574, symBinAddr: 0x10000C210, symSize: 0x15C }
  - { offsetInCU: 0x17FFF, offset: 0x17FFF, size: 0x8, addend: 0x0, symName: __ZNSt3__114__split_bufferIPiNS_9allocatorIS1_EEED1Ev, symObjAddr: 0x86D0, symBinAddr: 0x10000C36C, symSize: 0x2C }
  - { offsetInCU: 0x1802B, offset: 0x1802B, size: 0x8, addend: 0x0, symName: __ZNSt3__15dequeIiNS_9allocatorIiEEE5beginB7v160006Ev, symObjAddr: 0x86FC, symBinAddr: 0x10000C398, symSize: 0xA8 }
  - { offsetInCU: 0x18060, offset: 0x18060, size: 0x8, addend: 0x0, symName: __ZNSt3__116__deque_iteratorIiPiRiPS1_lLl1024EEppB7v160006Ev, symObjAddr: 0x87D8, symBinAddr: 0x10000C474, symSize: 0x70 }
  - { offsetInCU: 0x18086, offset: 0x18086, size: 0x8, addend: 0x0, symName: __ZNSt3__114__split_bufferIPiNS_9allocatorIS1_EEED2Ev, symObjAddr: 0x8878, symBinAddr: 0x10000C514, symSize: 0x80 }
  - { offsetInCU: 0x180B2, offset: 0x180B2, size: 0x8, addend: 0x0, symName: __ZNSt3__114__split_bufferIPiNS_9allocatorIS1_EEE5clearB7v160006Ev, symObjAddr: 0x88F8, symBinAddr: 0x10000C594, symSize: 0x28 }
  - { offsetInCU: 0x180D8, offset: 0x180D8, size: 0x8, addend: 0x0, symName: __ZNSt3__114__split_bufferIPiNS_9allocatorIS1_EEE17__destruct_at_endB7v160006EPS1_, symObjAddr: 0x8920, symBinAddr: 0x10000C5BC, symSize: 0x2C }
  - { offsetInCU: 0x1810C, offset: 0x1810C, size: 0x8, addend: 0x0, symName: __ZNSt3__114__split_bufferIPiNS_9allocatorIS1_EEE17__destruct_at_endB7v160006EPS1_NS_17integral_constantIbLb0EEE, symObjAddr: 0x894C, symBinAddr: 0x10000C5E8, symSize: 0x80 }
  - { offsetInCU: 0x1814C, offset: 0x1814C, size: 0x8, addend: 0x0, symName: __ZNSt3__120__shared_ptr_emplaceI9MemorySetNS_9allocatorIS1_EEED2Ev, symObjAddr: 0x89CC, symBinAddr: 0x10000C668, symSize: 0x48 }
  - { offsetInCU: 0x18179, offset: 0x18179, size: 0x8, addend: 0x0, symName: __ZNSt3__120__shared_ptr_emplaceI9MemorySetNS_9allocatorIS1_EEE8_StorageD1B7v160006Ev, symObjAddr: 0x8A14, symBinAddr: 0x10000C6B0, symSize: 0x2C }
  - { offsetInCU: 0x181A3, offset: 0x181A3, size: 0x8, addend: 0x0, symName: __ZNSt3__120__shared_ptr_emplaceI9MemorySetNS_9allocatorIS1_EEE8_StorageD2B7v160006Ev, symObjAddr: 0x8A40, symBinAddr: 0x10000C6DC, symSize: 0x2C }
  - { offsetInCU: 0x181CD, offset: 0x181CD, size: 0x8, addend: 0x0, symName: __ZNSt3__120__shared_ptr_emplaceI9MemorySetNS_9allocatorIS1_EEE11__get_allocB7v160006Ev, symObjAddr: 0x8A6C, symBinAddr: 0x10000C708, symSize: 0x28 }
  - { offsetInCU: 0x181F3, offset: 0x181F3, size: 0x8, addend: 0x0, symName: __ZNSt3__116allocator_traitsINS_9allocatorINS_20__shared_ptr_emplaceI9MemorySetNS1_IS3_EEEEEEE10deallocateB7v160006ERS6_PS5_m, symObjAddr: 0x8A94, symBinAddr: 0x10000C730, symSize: 0x34 }
  - { offsetInCU: 0x18235, offset: 0x18235, size: 0x8, addend: 0x0, symName: __ZNSt3__114pointer_traitsIPNS_20__shared_ptr_emplaceI9MemorySetNS_9allocatorIS2_EEEEE10pointer_toB7v160006ERS5_, symObjAddr: 0x8AC8, symBinAddr: 0x10000C764, symSize: 0x14 }
  - { offsetInCU: 0x18258, offset: 0x18258, size: 0x8, addend: 0x0, symName: __ZNSt3__19allocatorINS_20__shared_ptr_emplaceI9MemorySetNS0_IS2_EEEEE10deallocateB7v160006EPS4_m, symObjAddr: 0x8ADC, symBinAddr: 0x10000C778, symSize: 0x44 }
  - { offsetInCU: 0x1829A, offset: 0x1829A, size: 0x8, addend: 0x0, symName: __ZNSt3__110shared_ptrI9MemorySetEC1B7v160006Ev, symObjAddr: 0x8B20, symBinAddr: 0x10000C7BC, symSize: 0x2C }
  - { offsetInCU: 0x182C4, offset: 0x182C4, size: 0x8, addend: 0x0, symName: __ZNSt3__110shared_ptrI9MemorySetE18__enable_weak_thisB7v160006Ez, symObjAddr: 0x8B4C, symBinAddr: 0x10000C7E8, symSize: 0x10 }
  - { offsetInCU: 0x182EB, offset: 0x182EB, size: 0x8, addend: 0x0, symName: __ZNSt3__110shared_ptrI9MemorySetED1B7v160006Ev, symObjAddr: 0x8B5C, symBinAddr: 0x10000C7F8, symSize: 0x2C }
  - { offsetInCU: 0x18315, offset: 0x18315, size: 0x8, addend: 0x0, symName: __ZNSt3__110shared_ptrI9MemorySetEC2B7v160006Ev, symObjAddr: 0x8B88, symBinAddr: 0x10000C824, symSize: 0x1C }
  - { offsetInCU: 0x1833F, offset: 0x1833F, size: 0x8, addend: 0x0, symName: __ZNSt3__110shared_ptrI9MemorySetED2B7v160006Ev, symObjAddr: 0x8BA4, symBinAddr: 0x10000C840, symSize: 0x54 }
  - { offsetInCU: 0x18369, offset: 0x18369, size: 0x8, addend: 0x0, symName: __ZNSt3__120__shared_ptr_emplaceI9MemorySetNS_9allocatorIS1_EEE8_Storage10__get_elemEv, symObjAddr: 0x8BF8, symBinAddr: 0x10000C894, symSize: 0x3C }
  - { offsetInCU: 0x183BC, offset: 0x183BC, size: 0x8, addend: 0x0, symName: __ZNSt3__117__compressed_pairINS_9allocatorI9MemorySetEES2_E17__get_second_baseB7v160006EPS4_, symObjAddr: 0x8C34, symBinAddr: 0x10000C8D0, symSize: 0x14 }
  - { offsetInCU: 0x183DF, offset: 0x183DF, size: 0x8, addend: 0x0, symName: __ZNSt3__118__allocation_guardINS_9allocatorINS_20__shared_ptr_emplaceI9MemorySetNS1_IS3_EEEEEEED2B7v160006Ev, symObjAddr: 0x8C48, symBinAddr: 0x10000C8E4, symSize: 0x58 }
  - { offsetInCU: 0x18409, offset: 0x18409, size: 0x8, addend: 0x0, symName: __ZNSt3__19allocatorI9MemorySetEC2B7v160006Ev, symObjAddr: 0x8CA0, symBinAddr: 0x10000C93C, symSize: 0x2C }
  - { offsetInCU: 0x18433, offset: 0x18433, size: 0x8, addend: 0x0, symName: __ZNSt3__116__non_trivial_ifILb1ENS_9allocatorI9MemorySetEEEC2B7v160006Ev, symObjAddr: 0x8CCC, symBinAddr: 0x10000C968, symSize: 0x14 }
  - { offsetInCU: 0x1845D, offset: 0x1845D, size: 0x8, addend: 0x0, symName: __ZNSt3__110shared_ptrI12MemoryRecallEC2B7v160006Ev, symObjAddr: 0x8CE0, symBinAddr: 0x10000C97C, symSize: 0x1C }
  - { offsetInCU: 0x184AD, offset: 0x184AD, size: 0x8, addend: 0x0, symName: __ZNSt3__110shared_ptrI9OperationEC1B7v160006I17DivisionOperationvEEONS0_IT_EE, symObjAddr: 0x8D34, symBinAddr: 0x10000C9D0, symSize: 0x34 }
  - { offsetInCU: 0x184F0, offset: 0x184F0, size: 0x8, addend: 0x0, symName: __ZNSt3__110shared_ptrI17DivisionOperationED1B7v160006Ev, symObjAddr: 0x8D68, symBinAddr: 0x10000CA04, symSize: 0x2C }
  - { offsetInCU: 0x1851A, offset: 0x1851A, size: 0x8, addend: 0x0, symName: __ZNKSt3__110shared_ptrI9MemorySetE3getB7v160006Ev, symObjAddr: 0x8DD4, symBinAddr: 0x10000CA70, symSize: 0x18 }
  - { offsetInCU: 0x18540, offset: 0x18540, size: 0x8, addend: 0x0, symName: __ZNSt3__110shared_ptrI9OperationEC1B7v160006I12MemoryRecallvEEONS0_IT_EE, symObjAddr: 0x8DEC, symBinAddr: 0x10000CA88, symSize: 0x34 }
  - { offsetInCU: 0x18583, offset: 0x18583, size: 0x8, addend: 0x0, symName: __ZNSt3__110shared_ptrI12MemoryRecallED1B7v160006Ev, symObjAddr: 0x8E20, symBinAddr: 0x10000CABC, symSize: 0x2C }
  - { offsetInCU: 0x185AD, offset: 0x185AD, size: 0x8, addend: 0x0, symName: __ZNSt3__110shared_ptrI9OperationEC1B7v160006I9MemorySetvEERKNS0_IT_EE, symObjAddr: 0x8E4C, symBinAddr: 0x10000CAE8, symSize: 0x34 }
  - { offsetInCU: 0x185F0, offset: 0x185F0, size: 0x8, addend: 0x0, symName: __ZNSt3__19allocatorI17DivisionOperationEC1B7v160006Ev, symObjAddr: 0x8F10, symBinAddr: 0x10000CBAC, symSize: 0x2C }
  - { offsetInCU: 0x18659, offset: 0x18659, size: 0x8, addend: 0x0, symName: __ZNSt3__118__allocation_guardINS_9allocatorINS_20__shared_ptr_emplaceI17DivisionOperationNS1_IS3_EEEEEEEC1B7v160006IS4_EET_m, symObjAddr: 0x8F3C, symBinAddr: 0x10000CBD8, symSize: 0x34 }
  - { offsetInCU: 0x186A8, offset: 0x186A8, size: 0x8, addend: 0x0, symName: __ZNKSt3__118__allocation_guardINS_9allocatorINS_20__shared_ptr_emplaceI17DivisionOperationNS1_IS3_EEEEEEE5__getB7v160006Ev, symObjAddr: 0x8F70, symBinAddr: 0x10000CC0C, symSize: 0x18 }
  - { offsetInCU: 0x186CE, offset: 0x186CE, size: 0x8, addend: 0x0, symName: __ZNSt3__120__shared_ptr_emplaceI17DivisionOperationNS_9allocatorIS1_EEEC1B7v160006IJEEES3_DpOT_, symObjAddr: 0x8F88, symBinAddr: 0x10000CC24, symSize: 0x2C }
  - { offsetInCU: 0x1870C, offset: 0x1870C, size: 0x8, addend: 0x0, symName: __ZNSt3__118__allocation_guardINS_9allocatorINS_20__shared_ptr_emplaceI17DivisionOperationNS1_IS3_EEEEEEE13__release_ptrB7v160006Ev, symObjAddr: 0x8FB4, symBinAddr: 0x10000CC50, symSize: 0x24 }
  - { offsetInCU: 0x18740, offset: 0x18740, size: 0x8, addend: 0x0, symName: __ZNSt3__110shared_ptrI17DivisionOperationE27__create_with_control_blockB7v160006IS1_NS_20__shared_ptr_emplaceIS1_NS_9allocatorIS1_EEEEEES2_PT_PT0_, symObjAddr: 0x8FD8, symBinAddr: 0x10000CC74, symSize: 0xA4 }
  - { offsetInCU: 0x18795, offset: 0x18795, size: 0x8, addend: 0x0, symName: __ZNSt3__120__shared_ptr_emplaceI17DivisionOperationNS_9allocatorIS1_EEE10__get_elemB7v160006Ev, symObjAddr: 0x907C, symBinAddr: 0x10000CD18, symSize: 0x28 }
  - { offsetInCU: 0x187BB, offset: 0x187BB, size: 0x8, addend: 0x0, symName: __ZNSt3__118__allocation_guardINS_9allocatorINS_20__shared_ptr_emplaceI17DivisionOperationNS1_IS3_EEEEEEED1B7v160006Ev, symObjAddr: 0x90A4, symBinAddr: 0x10000CD40, symSize: 0x2C }
  - { offsetInCU: 0x187E5, offset: 0x187E5, size: 0x8, addend: 0x0, symName: __ZNSt3__118__allocation_guardINS_9allocatorINS_20__shared_ptr_emplaceI17DivisionOperationNS1_IS3_EEEEEEEC2B7v160006IS4_EET_m, symObjAddr: 0x90D0, symBinAddr: 0x10000CD6C, symSize: 0x50 }
  - { offsetInCU: 0x18834, offset: 0x18834, size: 0x8, addend: 0x0, symName: __ZNSt3__19allocatorINS_20__shared_ptr_emplaceI17DivisionOperationNS0_IS2_EEEEEC1B7v160006IS2_EERKNS0_IT_EE, symObjAddr: 0x9120, symBinAddr: 0x10000CDBC, symSize: 0x34 }
  - { offsetInCU: 0x18871, offset: 0x18871, size: 0x8, addend: 0x0, symName: __ZNSt3__116allocator_traitsINS_9allocatorINS_20__shared_ptr_emplaceI17DivisionOperationNS1_IS3_EEEEEEE8allocateB7v160006ERS6_m, symObjAddr: 0x9154, symBinAddr: 0x10000CDF0, symSize: 0x2C }
  - { offsetInCU: 0x188A4, offset: 0x188A4, size: 0x8, addend: 0x0, symName: __ZNSt3__19allocatorINS_20__shared_ptr_emplaceI17DivisionOperationNS0_IS2_EEEEEC2B7v160006IS2_EERKNS0_IT_EE, symObjAddr: 0x9180, symBinAddr: 0x10000CE1C, symSize: 0x30 }
  - { offsetInCU: 0x188E1, offset: 0x188E1, size: 0x8, addend: 0x0, symName: __ZNSt3__116__non_trivial_ifILb1ENS_9allocatorINS_20__shared_ptr_emplaceI17DivisionOperationNS1_IS3_EEEEEEEC2B7v160006Ev, symObjAddr: 0x91B0, symBinAddr: 0x10000CE4C, symSize: 0x14 }
  - { offsetInCU: 0x1890B, offset: 0x1890B, size: 0x8, addend: 0x0, symName: __ZNSt3__19allocatorINS_20__shared_ptr_emplaceI17DivisionOperationNS0_IS2_EEEEE8allocateB7v160006Em, symObjAddr: 0x91C4, symBinAddr: 0x10000CE60, symSize: 0x58 }
  - { offsetInCU: 0x1894A, offset: 0x1894A, size: 0x8, addend: 0x0, symName: __ZNSt3__116allocator_traitsINS_9allocatorINS_20__shared_ptr_emplaceI17DivisionOperationNS1_IS3_EEEEEEE8max_sizeB7v160006IS6_vEEmRKS6_, symObjAddr: 0x921C, symBinAddr: 0x10000CEB8, symSize: 0x24 }
  - { offsetInCU: 0x18978, offset: 0x18978, size: 0x8, addend: 0x0, symName: __ZNKSt3__19allocatorINS_20__shared_ptr_emplaceI17DivisionOperationNS0_IS2_EEEEE8max_sizeB7v160006Ev, symObjAddr: 0x9240, symBinAddr: 0x10000CEDC, symSize: 0x14 }
  - { offsetInCU: 0x1899E, offset: 0x1899E, size: 0x8, addend: 0x0, symName: __ZNSt3__120__shared_ptr_emplaceI17DivisionOperationNS_9allocatorIS1_EEEC2B7v160006IJEEES3_DpOT_, symObjAddr: 0x9254, symBinAddr: 0x10000CEF0, symSize: 0xA0 }
  - { offsetInCU: 0x189DC, offset: 0x189DC, size: 0x8, addend: 0x0, symName: __ZNSt3__120__shared_ptr_emplaceI17DivisionOperationNS_9allocatorIS1_EEE8_StorageC1B7v160006EOS3_, symObjAddr: 0x92F4, symBinAddr: 0x10000CF90, symSize: 0x34 }
  - { offsetInCU: 0x18A15, offset: 0x18A15, size: 0x8, addend: 0x0, symName: __ZN17DivisionOperationC1Ev, symObjAddr: 0x9328, symBinAddr: 0x10000CFC4, symSize: 0x2C }
  - { offsetInCU: 0x18A41, offset: 0x18A41, size: 0x8, addend: 0x0, symName: __ZNSt3__120__shared_ptr_emplaceI17DivisionOperationNS_9allocatorIS1_EEED1Ev, symObjAddr: 0x9354, symBinAddr: 0x10000CFF0, symSize: 0x2C }
  - { offsetInCU: 0x18A6E, offset: 0x18A6E, size: 0x8, addend: 0x0, symName: __ZNSt3__120__shared_ptr_emplaceI17DivisionOperationNS_9allocatorIS1_EEED0Ev, symObjAddr: 0x9380, symBinAddr: 0x10000D01C, symSize: 0x30 }
  - { offsetInCU: 0x18A9B, offset: 0x18A9B, size: 0x8, addend: 0x0, symName: __ZNSt3__120__shared_ptr_emplaceI17DivisionOperationNS_9allocatorIS1_EEE16__on_zero_sharedEv, symObjAddr: 0x93B0, symBinAddr: 0x10000D04C, symSize: 0x30 }
  - { offsetInCU: 0x18AC1, offset: 0x18AC1, size: 0x8, addend: 0x0, symName: __ZNSt3__120__shared_ptr_emplaceI17DivisionOperationNS_9allocatorIS1_EEE21__on_zero_shared_weakEv, symObjAddr: 0x93E0, symBinAddr: 0x10000D07C, symSize: 0x5C }
  - { offsetInCU: 0x18B02, offset: 0x18B02, size: 0x8, addend: 0x0, symName: __ZNSt3__120__shared_ptr_emplaceI17DivisionOperationNS_9allocatorIS1_EEE8_StorageC2B7v160006EOS3_, symObjAddr: 0x943C, symBinAddr: 0x10000D0D8, symSize: 0x30 }
  - { offsetInCU: 0x18B3B, offset: 0x18B3B, size: 0x8, addend: 0x0, symName: __ZNSt3__120__shared_ptr_emplaceI17DivisionOperationNS_9allocatorIS1_EEE8_Storage11__get_allocEv, symObjAddr: 0x946C, symBinAddr: 0x10000D108, symSize: 0x3C }
  - { offsetInCU: 0x18B8E, offset: 0x18B8E, size: 0x8, addend: 0x0, symName: __ZNSt3__117__compressed_pairINS_9allocatorI17DivisionOperationEES2_E16__get_first_baseB7v160006EPS4_, symObjAddr: 0x94A8, symBinAddr: 0x10000D144, symSize: 0x14 }
  - { offsetInCU: 0x18BB1, offset: 0x18BB1, size: 0x8, addend: 0x0, symName: __ZN17DivisionOperationC2Ev, symObjAddr: 0x94BC, symBinAddr: 0x10000D158, symSize: 0x44 }
  - { offsetInCU: 0x18BE2, offset: 0x18BE2, size: 0x8, addend: 0x0, symName: __ZN15MedianOperationC2Ev, symObjAddr: 0x9500, symBinAddr: 0x10000D19C, symSize: 0x50 }
  - { offsetInCU: 0x18C0E, offset: 0x18C0E, size: 0x8, addend: 0x0, symName: __ZN17DivisionOperation10addOperandEi, symObjAddr: 0x9550, symBinAddr: 0x10000D1EC, symSize: 0x90 }
  - { offsetInCU: 0x18C42, offset: 0x18C42, size: 0x8, addend: 0x0, symName: __ZN17DivisionOperation9getResultEv, symObjAddr: 0x95E0, symBinAddr: 0x10000D27C, symSize: 0x18 }
  - { offsetInCU: 0x18C68, offset: 0x18C68, size: 0x8, addend: 0x0, symName: __ZN17DivisionOperation11isCompletedEv, symObjAddr: 0x95F8, symBinAddr: 0x10000D294, symSize: 0x34 }
  - { offsetInCU: 0x18C8E, offset: 0x18C8E, size: 0x8, addend: 0x0, symName: __ZN17DivisionOperationD1Ev, symObjAddr: 0x962C, symBinAddr: 0x10000D2C8, symSize: 0x2C }
  - { offsetInCU: 0x18CB8, offset: 0x18CB8, size: 0x8, addend: 0x0, symName: __ZN17DivisionOperationD0Ev, symObjAddr: 0x9658, symBinAddr: 0x10000D2F4, symSize: 0x30 }
  - { offsetInCU: 0x18CE2, offset: 0x18CE2, size: 0x8, addend: 0x0, symName: __ZN15MedianOperationD1Ev, symObjAddr: 0x9688, symBinAddr: 0x10000D324, symSize: 0x14 }
  - { offsetInCU: 0x18D0E, offset: 0x18D0E, size: 0x8, addend: 0x0, symName: __ZN15MedianOperationD0Ev, symObjAddr: 0x969C, symBinAddr: 0x10000D338, symSize: 0xC }
  - { offsetInCU: 0x18D3A, offset: 0x18D3A, size: 0x8, addend: 0x0, symName: __ZN17DivisionOperationD2Ev, symObjAddr: 0x96A8, symBinAddr: 0x10000D344, symSize: 0x2C }
  - { offsetInCU: 0x18D64, offset: 0x18D64, size: 0x8, addend: 0x0, symName: __ZN15MedianOperationD2Ev, symObjAddr: 0x96D4, symBinAddr: 0x10000D370, symSize: 0x48 }
  - { offsetInCU: 0x18D90, offset: 0x18D90, size: 0x8, addend: 0x0, symName: __ZNSt3__120__shared_ptr_emplaceI17DivisionOperationNS_9allocatorIS1_EEED2Ev, symObjAddr: 0x971C, symBinAddr: 0x10000D3B8, symSize: 0x48 }
  - { offsetInCU: 0x18DBD, offset: 0x18DBD, size: 0x8, addend: 0x0, symName: __ZNSt3__120__shared_ptr_emplaceI17DivisionOperationNS_9allocatorIS1_EEE8_StorageD1B7v160006Ev, symObjAddr: 0x9764, symBinAddr: 0x10000D400, symSize: 0x2C }
  - { offsetInCU: 0x18DE7, offset: 0x18DE7, size: 0x8, addend: 0x0, symName: __ZNSt3__120__shared_ptr_emplaceI17DivisionOperationNS_9allocatorIS1_EEE8_StorageD2B7v160006Ev, symObjAddr: 0x9790, symBinAddr: 0x10000D42C, symSize: 0x2C }
  - { offsetInCU: 0x18E11, offset: 0x18E11, size: 0x8, addend: 0x0, symName: __ZNSt3__120__shared_ptr_emplaceI17DivisionOperationNS_9allocatorIS1_EEE11__get_allocB7v160006Ev, symObjAddr: 0x97BC, symBinAddr: 0x10000D458, symSize: 0x28 }
  - { offsetInCU: 0x18E37, offset: 0x18E37, size: 0x8, addend: 0x0, symName: __ZNSt3__116allocator_traitsINS_9allocatorINS_20__shared_ptr_emplaceI17DivisionOperationNS1_IS3_EEEEEEE10deallocateB7v160006ERS6_PS5_m, symObjAddr: 0x97E4, symBinAddr: 0x10000D480, symSize: 0x34 }
  - { offsetInCU: 0x18E79, offset: 0x18E79, size: 0x8, addend: 0x0, symName: __ZNSt3__114pointer_traitsIPNS_20__shared_ptr_emplaceI17DivisionOperationNS_9allocatorIS2_EEEEE10pointer_toB7v160006ERS5_, symObjAddr: 0x9818, symBinAddr: 0x10000D4B4, symSize: 0x14 }
  - { offsetInCU: 0x18E9C, offset: 0x18E9C, size: 0x8, addend: 0x0, symName: __ZNSt3__19allocatorINS_20__shared_ptr_emplaceI17DivisionOperationNS0_IS2_EEEEE10deallocateB7v160006EPS4_m, symObjAddr: 0x982C, symBinAddr: 0x10000D4C8, symSize: 0x40 }
  - { offsetInCU: 0x18EDE, offset: 0x18EDE, size: 0x8, addend: 0x0, symName: __ZNSt3__110shared_ptrI17DivisionOperationEC1B7v160006Ev, symObjAddr: 0x986C, symBinAddr: 0x10000D508, symSize: 0x2C }
  - { offsetInCU: 0x18F08, offset: 0x18F08, size: 0x8, addend: 0x0, symName: __ZNSt3__110shared_ptrI17DivisionOperationE18__enable_weak_thisB7v160006Ez, symObjAddr: 0x9898, symBinAddr: 0x10000D534, symSize: 0x10 }
  - { offsetInCU: 0x18F2F, offset: 0x18F2F, size: 0x8, addend: 0x0, symName: __ZNSt3__110shared_ptrI17DivisionOperationEC2B7v160006Ev, symObjAddr: 0x98A8, symBinAddr: 0x10000D544, symSize: 0x1C }
  - { offsetInCU: 0x18F59, offset: 0x18F59, size: 0x8, addend: 0x0, symName: __ZNSt3__120__shared_ptr_emplaceI17DivisionOperationNS_9allocatorIS1_EEE8_Storage10__get_elemEv, symObjAddr: 0x98C4, symBinAddr: 0x10000D560, symSize: 0x3C }
  - { offsetInCU: 0x18FAC, offset: 0x18FAC, size: 0x8, addend: 0x0, symName: __ZNSt3__117__compressed_pairINS_9allocatorI17DivisionOperationEES2_E17__get_second_baseB7v160006EPS4_, symObjAddr: 0x9900, symBinAddr: 0x10000D59C, symSize: 0x14 }
  - { offsetInCU: 0x18FCF, offset: 0x18FCF, size: 0x8, addend: 0x0, symName: __ZNSt3__118__allocation_guardINS_9allocatorINS_20__shared_ptr_emplaceI17DivisionOperationNS1_IS3_EEEEEEED2B7v160006Ev, symObjAddr: 0x9914, symBinAddr: 0x10000D5B0, symSize: 0x58 }
  - { offsetInCU: 0x18FF9, offset: 0x18FF9, size: 0x8, addend: 0x0, symName: __ZNSt3__19allocatorI17DivisionOperationEC2B7v160006Ev, symObjAddr: 0x996C, symBinAddr: 0x10000D608, symSize: 0x2C }
  - { offsetInCU: 0x19023, offset: 0x19023, size: 0x8, addend: 0x0, symName: __ZNSt3__116__non_trivial_ifILb1ENS_9allocatorI17DivisionOperationEEEC2B7v160006Ev, symObjAddr: 0x9998, symBinAddr: 0x10000D634, symSize: 0x14 }
  - { offsetInCU: 0x1904D, offset: 0x1904D, size: 0x8, addend: 0x0, symName: __ZNSt3__110shared_ptrI9OperationEC2B7v160006I17DivisionOperationvEEONS0_IT_EE, symObjAddr: 0x99AC, symBinAddr: 0x10000D648, symSize: 0x40 }
  - { offsetInCU: 0x19090, offset: 0x19090, size: 0x8, addend: 0x0, symName: __ZNSt3__110shared_ptrI17DivisionOperationED2B7v160006Ev, symObjAddr: 0x99EC, symBinAddr: 0x10000D688, symSize: 0x54 }
  - { offsetInCU: 0x190BA, offset: 0x190BA, size: 0x8, addend: 0x0, symName: __ZNSt3__19allocatorI12MemoryRecallEC1B7v160006Ev, symObjAddr: 0x9AD8, symBinAddr: 0x10000D774, symSize: 0x2C }
  - { offsetInCU: 0x19123, offset: 0x19123, size: 0x8, addend: 0x0, symName: __ZNSt3__118__allocation_guardINS_9allocatorINS_20__shared_ptr_emplaceI12MemoryRecallNS1_IS3_EEEEEEEC1B7v160006IS4_EET_m, symObjAddr: 0x9B04, symBinAddr: 0x10000D7A0, symSize: 0x34 }
  - { offsetInCU: 0x19172, offset: 0x19172, size: 0x8, addend: 0x0, symName: __ZNKSt3__118__allocation_guardINS_9allocatorINS_20__shared_ptr_emplaceI12MemoryRecallNS1_IS3_EEEEEEE5__getB7v160006Ev, symObjAddr: 0x9B38, symBinAddr: 0x10000D7D4, symSize: 0x18 }
  - { offsetInCU: 0x19198, offset: 0x19198, size: 0x8, addend: 0x0, symName: __ZNSt3__120__shared_ptr_emplaceI12MemoryRecallNS_9allocatorIS1_EEEC1B7v160006IJR9MemorySetEEES3_DpOT_, symObjAddr: 0x9B50, symBinAddr: 0x10000D7EC, symSize: 0x34 }
  - { offsetInCU: 0x191EB, offset: 0x191EB, size: 0x8, addend: 0x0, symName: __ZNSt3__118__allocation_guardINS_9allocatorINS_20__shared_ptr_emplaceI12MemoryRecallNS1_IS3_EEEEEEE13__release_ptrB7v160006Ev, symObjAddr: 0x9B84, symBinAddr: 0x10000D820, symSize: 0x24 }
  - { offsetInCU: 0x1921F, offset: 0x1921F, size: 0x8, addend: 0x0, symName: __ZNSt3__110shared_ptrI12MemoryRecallE27__create_with_control_blockB7v160006IS1_NS_20__shared_ptr_emplaceIS1_NS_9allocatorIS1_EEEEEES2_PT_PT0_, symObjAddr: 0x9BA8, symBinAddr: 0x10000D844, symSize: 0xA4 }
  - { offsetInCU: 0x19274, offset: 0x19274, size: 0x8, addend: 0x0, symName: __ZNSt3__120__shared_ptr_emplaceI12MemoryRecallNS_9allocatorIS1_EEE10__get_elemB7v160006Ev, symObjAddr: 0x9C4C, symBinAddr: 0x10000D8E8, symSize: 0x28 }
  - { offsetInCU: 0x1929A, offset: 0x1929A, size: 0x8, addend: 0x0, symName: __ZNSt3__118__allocation_guardINS_9allocatorINS_20__shared_ptr_emplaceI12MemoryRecallNS1_IS3_EEEEEEED1B7v160006Ev, symObjAddr: 0x9C74, symBinAddr: 0x10000D910, symSize: 0x2C }
  - { offsetInCU: 0x192C4, offset: 0x192C4, size: 0x8, addend: 0x0, symName: __ZNSt3__118__allocation_guardINS_9allocatorINS_20__shared_ptr_emplaceI12MemoryRecallNS1_IS3_EEEEEEEC2B7v160006IS4_EET_m, symObjAddr: 0x9CA0, symBinAddr: 0x10000D93C, symSize: 0x50 }
  - { offsetInCU: 0x19313, offset: 0x19313, size: 0x8, addend: 0x0, symName: __ZNSt3__19allocatorINS_20__shared_ptr_emplaceI12MemoryRecallNS0_IS2_EEEEEC1B7v160006IS2_EERKNS0_IT_EE, symObjAddr: 0x9CF0, symBinAddr: 0x10000D98C, symSize: 0x34 }
  - { offsetInCU: 0x19350, offset: 0x19350, size: 0x8, addend: 0x0, symName: __ZNSt3__116allocator_traitsINS_9allocatorINS_20__shared_ptr_emplaceI12MemoryRecallNS1_IS3_EEEEEEE8allocateB7v160006ERS6_m, symObjAddr: 0x9D24, symBinAddr: 0x10000D9C0, symSize: 0x2C }
  - { offsetInCU: 0x19383, offset: 0x19383, size: 0x8, addend: 0x0, symName: __ZNSt3__19allocatorINS_20__shared_ptr_emplaceI12MemoryRecallNS0_IS2_EEEEEC2B7v160006IS2_EERKNS0_IT_EE, symObjAddr: 0x9D50, symBinAddr: 0x10000D9EC, symSize: 0x30 }
  - { offsetInCU: 0x193C0, offset: 0x193C0, size: 0x8, addend: 0x0, symName: __ZNSt3__116__non_trivial_ifILb1ENS_9allocatorINS_20__shared_ptr_emplaceI12MemoryRecallNS1_IS3_EEEEEEEC2B7v160006Ev, symObjAddr: 0x9D80, symBinAddr: 0x10000DA1C, symSize: 0x14 }
  - { offsetInCU: 0x193EA, offset: 0x193EA, size: 0x8, addend: 0x0, symName: __ZNSt3__19allocatorINS_20__shared_ptr_emplaceI12MemoryRecallNS0_IS2_EEEEE8allocateB7v160006Em, symObjAddr: 0x9D94, symBinAddr: 0x10000DA30, symSize: 0x5C }
  - { offsetInCU: 0x19429, offset: 0x19429, size: 0x8, addend: 0x0, symName: __ZNSt3__116allocator_traitsINS_9allocatorINS_20__shared_ptr_emplaceI12MemoryRecallNS1_IS3_EEEEEEE8max_sizeB7v160006IS6_vEEmRKS6_, symObjAddr: 0x9DF0, symBinAddr: 0x10000DA8C, symSize: 0x24 }
  - { offsetInCU: 0x19457, offset: 0x19457, size: 0x8, addend: 0x0, symName: __ZNKSt3__19allocatorINS_20__shared_ptr_emplaceI12MemoryRecallNS0_IS2_EEEEE8max_sizeB7v160006Ev, symObjAddr: 0x9E14, symBinAddr: 0x10000DAB0, symSize: 0x18 }
  - { offsetInCU: 0x1947D, offset: 0x1947D, size: 0x8, addend: 0x0, symName: __ZNSt3__120__shared_ptr_emplaceI12MemoryRecallNS_9allocatorIS1_EEEC2B7v160006IJR9MemorySetEEES3_DpOT_, symObjAddr: 0x9E2C, symBinAddr: 0x10000DAC8, symSize: 0xB8 }
  - { offsetInCU: 0x194D0, offset: 0x194D0, size: 0x8, addend: 0x0, symName: __ZNSt3__120__shared_ptr_emplaceI12MemoryRecallNS_9allocatorIS1_EEE8_StorageC1B7v160006EOS3_, symObjAddr: 0x9EE4, symBinAddr: 0x10000DB80, symSize: 0x34 }
  - { offsetInCU: 0x19509, offset: 0x19509, size: 0x8, addend: 0x0, symName: __ZN12MemoryRecallC1ER9MemorySet, symObjAddr: 0x9F18, symBinAddr: 0x10000DBB4, symSize: 0x34 }
  - { offsetInCU: 0x19541, offset: 0x19541, size: 0x8, addend: 0x0, symName: __ZNSt3__120__shared_ptr_emplaceI12MemoryRecallNS_9allocatorIS1_EEE8_StorageD1B7v160006Ev, symObjAddr: 0x9F4C, symBinAddr: 0x10000DBE8, symSize: 0x2C }
  - { offsetInCU: 0x1956B, offset: 0x1956B, size: 0x8, addend: 0x0, symName: __ZNSt3__120__shared_ptr_emplaceI12MemoryRecallNS_9allocatorIS1_EEED1Ev, symObjAddr: 0x9F78, symBinAddr: 0x10000DC14, symSize: 0x2C }
  - { offsetInCU: 0x19598, offset: 0x19598, size: 0x8, addend: 0x0, symName: __ZNSt3__120__shared_ptr_emplaceI12MemoryRecallNS_9allocatorIS1_EEED0Ev, symObjAddr: 0x9FA4, symBinAddr: 0x10000DC40, symSize: 0x30 }
  - { offsetInCU: 0x195C5, offset: 0x195C5, size: 0x8, addend: 0x0, symName: __ZNSt3__120__shared_ptr_emplaceI12MemoryRecallNS_9allocatorIS1_EEE16__on_zero_sharedEv, symObjAddr: 0x9FD4, symBinAddr: 0x10000DC70, symSize: 0x30 }
  - { offsetInCU: 0x195EB, offset: 0x195EB, size: 0x8, addend: 0x0, symName: __ZNSt3__120__shared_ptr_emplaceI12MemoryRecallNS_9allocatorIS1_EEE21__on_zero_shared_weakEv, symObjAddr: 0xA004, symBinAddr: 0x10000DCA0, symSize: 0x5C }
  - { offsetInCU: 0x1962C, offset: 0x1962C, size: 0x8, addend: 0x0, symName: __ZNSt3__120__shared_ptr_emplaceI12MemoryRecallNS_9allocatorIS1_EEE8_StorageC2B7v160006EOS3_, symObjAddr: 0xA060, symBinAddr: 0x10000DCFC, symSize: 0x30 }
  - { offsetInCU: 0x19665, offset: 0x19665, size: 0x8, addend: 0x0, symName: __ZNSt3__120__shared_ptr_emplaceI12MemoryRecallNS_9allocatorIS1_EEE8_Storage11__get_allocEv, symObjAddr: 0xA090, symBinAddr: 0x10000DD2C, symSize: 0x3C }
  - { offsetInCU: 0x196B8, offset: 0x196B8, size: 0x8, addend: 0x0, symName: __ZNSt3__117__compressed_pairINS_9allocatorI12MemoryRecallEES2_E16__get_first_baseB7v160006EPS4_, symObjAddr: 0xA0CC, symBinAddr: 0x10000DD68, symSize: 0x14 }
  - { offsetInCU: 0x196DB, offset: 0x196DB, size: 0x8, addend: 0x0, symName: __ZN12MemoryRecallC2ER9MemorySet, symObjAddr: 0xA0E0, symBinAddr: 0x10000DD7C, symSize: 0x50 }
  - { offsetInCU: 0x19713, offset: 0x19713, size: 0x8, addend: 0x0, symName: __ZN12MemoryRecall10addOperandEi, symObjAddr: 0xA130, symBinAddr: 0x10000DDCC, symSize: 0x14 }
  - { offsetInCU: 0x19747, offset: 0x19747, size: 0x8, addend: 0x0, symName: __ZN12MemoryRecall9getResultEv, symObjAddr: 0xA144, symBinAddr: 0x10000DDE0, symSize: 0x30 }
  - { offsetInCU: 0x1976D, offset: 0x1976D, size: 0x8, addend: 0x0, symName: __ZN12MemoryRecall11isCompletedEv, symObjAddr: 0xA174, symBinAddr: 0x10000DE10, symSize: 0x18 }
  - { offsetInCU: 0x19793, offset: 0x19793, size: 0x8, addend: 0x0, symName: __ZN12MemoryRecallD1Ev, symObjAddr: 0xA18C, symBinAddr: 0x10000DE28, symSize: 0x2C }
  - { offsetInCU: 0x197BD, offset: 0x197BD, size: 0x8, addend: 0x0, symName: __ZN12MemoryRecallD0Ev, symObjAddr: 0xA1B8, symBinAddr: 0x10000DE54, symSize: 0x30 }
  - { offsetInCU: 0x197E7, offset: 0x197E7, size: 0x8, addend: 0x0, symName: __ZN12MemoryRecallD2Ev, symObjAddr: 0xA1E8, symBinAddr: 0x10000DE84, symSize: 0x2C }
  - { offsetInCU: 0x19811, offset: 0x19811, size: 0x8, addend: 0x0, symName: __ZNSt3__120__shared_ptr_emplaceI12MemoryRecallNS_9allocatorIS1_EEE8_StorageD2B7v160006Ev, symObjAddr: 0xA214, symBinAddr: 0x10000DEB0, symSize: 0x2C }
  - { offsetInCU: 0x1983B, offset: 0x1983B, size: 0x8, addend: 0x0, symName: __ZNSt3__120__shared_ptr_emplaceI12MemoryRecallNS_9allocatorIS1_EEED2Ev, symObjAddr: 0xA240, symBinAddr: 0x10000DEDC, symSize: 0x48 }
  - { offsetInCU: 0x19868, offset: 0x19868, size: 0x8, addend: 0x0, symName: __ZNSt3__120__shared_ptr_emplaceI12MemoryRecallNS_9allocatorIS1_EEE11__get_allocB7v160006Ev, symObjAddr: 0xA288, symBinAddr: 0x10000DF24, symSize: 0x28 }
  - { offsetInCU: 0x1988E, offset: 0x1988E, size: 0x8, addend: 0x0, symName: __ZNSt3__116allocator_traitsINS_9allocatorINS_20__shared_ptr_emplaceI12MemoryRecallNS1_IS3_EEEEEEE10deallocateB7v160006ERS6_PS5_m, symObjAddr: 0xA2B0, symBinAddr: 0x10000DF4C, symSize: 0x34 }
  - { offsetInCU: 0x198D0, offset: 0x198D0, size: 0x8, addend: 0x0, symName: __ZNSt3__114pointer_traitsIPNS_20__shared_ptr_emplaceI12MemoryRecallNS_9allocatorIS2_EEEEE10pointer_toB7v160006ERS5_, symObjAddr: 0xA2E4, symBinAddr: 0x10000DF80, symSize: 0x14 }
  - { offsetInCU: 0x198F3, offset: 0x198F3, size: 0x8, addend: 0x0, symName: __ZNSt3__19allocatorINS_20__shared_ptr_emplaceI12MemoryRecallNS0_IS2_EEEEE10deallocateB7v160006EPS4_m, symObjAddr: 0xA2F8, symBinAddr: 0x10000DF94, symSize: 0x44 }
  - { offsetInCU: 0x19935, offset: 0x19935, size: 0x8, addend: 0x0, symName: __ZNSt3__110shared_ptrI12MemoryRecallE18__enable_weak_thisB7v160006Ez, symObjAddr: 0xA33C, symBinAddr: 0x10000DFD8, symSize: 0x10 }
  - { offsetInCU: 0x1995C, offset: 0x1995C, size: 0x8, addend: 0x0, symName: __ZNSt3__120__shared_ptr_emplaceI12MemoryRecallNS_9allocatorIS1_EEE8_Storage10__get_elemEv, symObjAddr: 0xA34C, symBinAddr: 0x10000DFE8, symSize: 0x3C }
  - { offsetInCU: 0x199AF, offset: 0x199AF, size: 0x8, addend: 0x0, symName: __ZNSt3__117__compressed_pairINS_9allocatorI12MemoryRecallEES2_E17__get_second_baseB7v160006EPS4_, symObjAddr: 0xA388, symBinAddr: 0x10000E024, symSize: 0x14 }
  - { offsetInCU: 0x199D2, offset: 0x199D2, size: 0x8, addend: 0x0, symName: __ZNSt3__118__allocation_guardINS_9allocatorINS_20__shared_ptr_emplaceI12MemoryRecallNS1_IS3_EEEEEEED2B7v160006Ev, symObjAddr: 0xA39C, symBinAddr: 0x10000E038, symSize: 0x58 }
  - { offsetInCU: 0x199FC, offset: 0x199FC, size: 0x8, addend: 0x0, symName: __ZNSt3__19allocatorI12MemoryRecallEC2B7v160006Ev, symObjAddr: 0xA3F4, symBinAddr: 0x10000E090, symSize: 0x2C }
  - { offsetInCU: 0x19A26, offset: 0x19A26, size: 0x8, addend: 0x0, symName: __ZNSt3__116__non_trivial_ifILb1ENS_9allocatorI12MemoryRecallEEEC2B7v160006Ev, symObjAddr: 0xA420, symBinAddr: 0x10000E0BC, symSize: 0x14 }
  - { offsetInCU: 0x19A50, offset: 0x19A50, size: 0x8, addend: 0x0, symName: __ZNSt3__110shared_ptrI9OperationEC2B7v160006I12MemoryRecallvEEONS0_IT_EE, symObjAddr: 0xA434, symBinAddr: 0x10000E0D0, symSize: 0x40 }
  - { offsetInCU: 0x19A93, offset: 0x19A93, size: 0x8, addend: 0x0, symName: __ZNSt3__110shared_ptrI12MemoryRecallED2B7v160006Ev, symObjAddr: 0xA474, symBinAddr: 0x10000E110, symSize: 0x54 }
  - { offsetInCU: 0x19ABD, offset: 0x19ABD, size: 0x8, addend: 0x0, symName: __ZNSt3__110shared_ptrI9OperationEC2B7v160006I9MemorySetvEERKNS0_IT_EE, symObjAddr: 0xA4C8, symBinAddr: 0x10000E164, symSize: 0x70 }
  - { offsetInCU: 0x19B00, offset: 0x19B00, size: 0x8, addend: 0x0, symName: __ZNSt3__120__shared_ptr_emplaceI19AdvancedInterpreterNS_9allocatorIS1_EEE8_StorageD2B7v160006Ev, symObjAddr: 0xA538, symBinAddr: 0x10000E1D4, symSize: 0x2C }
  - { offsetInCU: 0x19B2A, offset: 0x19B2A, size: 0x8, addend: 0x0, symName: __ZNSt3__120__shared_ptr_emplaceI19AdvancedInterpreterNS_9allocatorIS1_EEED2Ev, symObjAddr: 0xA564, symBinAddr: 0x10000E200, symSize: 0x48 }
  - { offsetInCU: 0x19B57, offset: 0x19B57, size: 0x8, addend: 0x0, symName: __ZN19AdvancedInterpreterD1Ev, symObjAddr: 0xA5AC, symBinAddr: 0x10000E248, symSize: 0x2C }
  - { offsetInCU: 0x19B83, offset: 0x19B83, size: 0x8, addend: 0x0, symName: __ZN19AdvancedInterpreterD2Ev, symObjAddr: 0xA5D8, symBinAddr: 0x10000E274, symSize: 0x4C }
  - { offsetInCU: 0x19BAF, offset: 0x19BAF, size: 0x8, addend: 0x0, symName: __ZNSt3__120__shared_ptr_emplaceI19AdvancedInterpreterNS_9allocatorIS1_EEE11__get_allocB7v160006Ev, symObjAddr: 0xA624, symBinAddr: 0x10000E2C0, symSize: 0x28 }
  - { offsetInCU: 0x19BD5, offset: 0x19BD5, size: 0x8, addend: 0x0, symName: __ZNSt3__116allocator_traitsINS_9allocatorINS_20__shared_ptr_emplaceI19AdvancedInterpreterNS1_IS3_EEEEEEE10deallocateB7v160006ERS6_PS5_m, symObjAddr: 0xA64C, symBinAddr: 0x10000E2E8, symSize: 0x34 }
  - { offsetInCU: 0x19C17, offset: 0x19C17, size: 0x8, addend: 0x0, symName: __ZNSt3__114pointer_traitsIPNS_20__shared_ptr_emplaceI19AdvancedInterpreterNS_9allocatorIS2_EEEEE10pointer_toB7v160006ERS5_, symObjAddr: 0xA680, symBinAddr: 0x10000E31C, symSize: 0x14 }
  - { offsetInCU: 0x19C3A, offset: 0x19C3A, size: 0x8, addend: 0x0, symName: __ZNSt3__19allocatorINS_20__shared_ptr_emplaceI19AdvancedInterpreterNS0_IS2_EEEEE10deallocateB7v160006EPS4_m, symObjAddr: 0xA694, symBinAddr: 0x10000E330, symSize: 0x44 }
  - { offsetInCU: 0x19C7C, offset: 0x19C7C, size: 0x8, addend: 0x0, symName: __ZNSt3__110shared_ptrI19AdvancedInterpreterEC1B7v160006Ev, symObjAddr: 0xA6D8, symBinAddr: 0x10000E374, symSize: 0x2C }
  - { offsetInCU: 0x19CA6, offset: 0x19CA6, size: 0x8, addend: 0x0, symName: __ZNSt3__110shared_ptrI19AdvancedInterpreterE18__enable_weak_thisB7v160006Ez, symObjAddr: 0xA704, symBinAddr: 0x10000E3A0, symSize: 0x10 }
  - { offsetInCU: 0x19CCD, offset: 0x19CCD, size: 0x8, addend: 0x0, symName: __ZNSt3__110shared_ptrI19AdvancedInterpreterEC2B7v160006Ev, symObjAddr: 0xA714, symBinAddr: 0x10000E3B0, symSize: 0x1C }
  - { offsetInCU: 0x19CF7, offset: 0x19CF7, size: 0x8, addend: 0x0, symName: __ZNSt3__120__shared_ptr_emplaceI19AdvancedInterpreterNS_9allocatorIS1_EEE8_Storage10__get_elemEv, symObjAddr: 0xA730, symBinAddr: 0x10000E3CC, symSize: 0x3C }
  - { offsetInCU: 0x19D4A, offset: 0x19D4A, size: 0x8, addend: 0x0, symName: __ZNSt3__117__compressed_pairINS_9allocatorI19AdvancedInterpreterEES2_E17__get_second_baseB7v160006EPS4_, symObjAddr: 0xA76C, symBinAddr: 0x10000E408, symSize: 0x14 }
  - { offsetInCU: 0x19D6D, offset: 0x19D6D, size: 0x8, addend: 0x0, symName: __ZNSt3__118__allocation_guardINS_9allocatorINS_20__shared_ptr_emplaceI19AdvancedInterpreterNS1_IS3_EEEEEEED2B7v160006Ev, symObjAddr: 0xA780, symBinAddr: 0x10000E41C, symSize: 0x58 }
  - { offsetInCU: 0x19D97, offset: 0x19D97, size: 0x8, addend: 0x0, symName: __ZNSt3__19allocatorI19AdvancedInterpreterEC2B7v160006Ev, symObjAddr: 0xA7D8, symBinAddr: 0x10000E474, symSize: 0x2C }
  - { offsetInCU: 0x19DC1, offset: 0x19DC1, size: 0x8, addend: 0x0, symName: __ZNSt3__116__non_trivial_ifILb1ENS_9allocatorI19AdvancedInterpreterEEEC2B7v160006Ev, symObjAddr: 0xA804, symBinAddr: 0x10000E4A0, symSize: 0x14 }
  - { offsetInCU: 0x19DEB, offset: 0x19DEB, size: 0x8, addend: 0x0, symName: __ZNSt3__110shared_ptrI19AdvancedInterpreterED2B7v160006Ev, symObjAddr: 0xA818, symBinAddr: 0x10000E4B4, symSize: 0x54 }
  - { offsetInCU: 0x19E15, offset: 0x19E15, size: 0x8, addend: 0x0, symName: __ZNSt3__110shared_ptrI16InputInterpreterEC2B7v160006I19AdvancedInterpretervEEONS0_IT_EE, symObjAddr: 0xA86C, symBinAddr: 0x10000E508, symSize: 0x40 }
  - { offsetInCU: 0x19E58, offset: 0x19E58, size: 0x8, addend: 0x0, symName: __ZNSt3__112basic_stringIcNS_11char_traitsIcEENS_9allocatorIcEEEC2B7v160006Ev, symObjAddr: 0xA8AC, symBinAddr: 0x10000E548, symSize: 0x4C }
  - { offsetInCU: 0x19E82, offset: 0x19E82, size: 0x8, addend: 0x0, symName: __ZNSt3__117__compressed_pairINS_12basic_stringIcNS_11char_traitsIcEENS_9allocatorIcEEE5__repES5_EC1B7v160006INS_18__default_init_tagESA_EEOT_OT0_, symObjAddr: 0xA8F8, symBinAddr: 0x10000E594, symSize: 0x3C }
  - { offsetInCU: 0x19EDA, offset: 0x19EDA, size: 0x8, addend: 0x0, symName: __ZNSt3__117__compressed_pairINS_12basic_stringIcNS_11char_traitsIcEENS_9allocatorIcEEE5__repES5_EC2B7v160006INS_18__default_init_tagESA_EEOT_OT0_, symObjAddr: 0xA934, symBinAddr: 0x10000E5D0, symSize: 0x3C }
  - { offsetInCU: 0x19F32, offset: 0x19F32, size: 0x8, addend: 0x0, symName: __ZNSt3__122__compressed_pair_elemINS_9allocatorIcEELi1ELb1EEC2B7v160006ENS_18__default_init_tagE, symObjAddr: 0xA970, symBinAddr: 0x10000E60C, symSize: 0x2C }
  - { offsetInCU: 0x19F66, offset: 0x19F66, size: 0x8, addend: 0x0, symName: __ZNSt3__19allocatorIcEC2B7v160006Ev, symObjAddr: 0xA99C, symBinAddr: 0x10000E638, symSize: 0x2C }
  - { offsetInCU: 0x19F90, offset: 0x19F90, size: 0x8, addend: 0x0, symName: __ZNSt3__116__non_trivial_ifILb1ENS_9allocatorIcEEEC2B7v160006Ev, symObjAddr: 0xA9C8, symBinAddr: 0x10000E664, symSize: 0x14 }
  - { offsetInCU: 0x19FBA, offset: 0x19FBA, size: 0x8, addend: 0x0, symName: __ZNSt3__110shared_ptrI16InputInterpreterED2B7v160006Ev, symObjAddr: 0xA9DC, symBinAddr: 0x10000E678, symSize: 0x54 }
  - { offsetInCU: 0x1A005, offset: 0x1A005, size: 0x8, addend: 0x0, symName: __ZNKSt3__113basic_istreamIcNS_11char_traitsIcEEE6sentrycvbB7v160006Ev, symObjAddr: 0xAA30, symBinAddr: 0x10000E6CC, symSize: 0x1C }
  - { offsetInCU: 0x1A02B, offset: 0x1A02B, size: 0x8, addend: 0x0, symName: __ZNSt3__112basic_stringIcNS_11char_traitsIcEENS_9allocatorIcEEE5clearB7v160006Ev, symObjAddr: 0xAA4C, symBinAddr: 0x10000E6E8, symSize: 0x88 }
  - { offsetInCU: 0x1A053, offset: 0x1A053, size: 0x8, addend: 0x0, symName: __ZNKSt3__18ios_base5widthB7v160006Ev, symObjAddr: 0xAAD4, symBinAddr: 0x10000E770, symSize: 0x18 }
  - { offsetInCU: 0x1A07B, offset: 0x1A07B, size: 0x8, addend: 0x0, symName: __ZNKSt3__112basic_stringIcNS_11char_traitsIcEENS_9allocatorIcEEE8max_sizeB7v160006Ev, symObjAddr: 0xAAEC, symBinAddr: 0x10000E788, symSize: 0xAC }
  - { offsetInCU: 0x1A0CD, offset: 0x1A0CD, size: 0x8, addend: 0x0, symName: __ZNKSt3__19basic_iosIcNS_11char_traitsIcEEE5rdbufB7v160006Ev, symObjAddr: 0xABC4, symBinAddr: 0x10000E860, symSize: 0x24 }
  - { offsetInCU: 0x1A0F5, offset: 0x1A0F5, size: 0x8, addend: 0x0, symName: __ZNSt3__115basic_streambufIcNS_11char_traitsIcEEE5sgetcB7v160006Ev, symObjAddr: 0xABE8, symBinAddr: 0x10000E884, symSize: 0x70 }
  - { offsetInCU: 0x1A11B, offset: 0x1A11B, size: 0x8, addend: 0x0, symName: __ZNSt3__111char_traitsIcE11eq_int_typeEii, symObjAddr: 0xAC58, symBinAddr: 0x10000E8F4, symSize: 0x28 }
  - { offsetInCU: 0x1A14C, offset: 0x1A14C, size: 0x8, addend: 0x0, symName: __ZNSt3__111char_traitsIcE12to_char_typeEi, symObjAddr: 0xAC80, symBinAddr: 0x10000E91C, symSize: 0x18 }
  - { offsetInCU: 0x1A19C, offset: 0x1A19C, size: 0x8, addend: 0x0, symName: __ZNKSt3__15ctypeIcE2isB7v160006Ejc, symObjAddr: 0xAC98, symBinAddr: 0x10000E934, symSize: 0x7C }
  - { offsetInCU: 0x1A1E0, offset: 0x1A1E0, size: 0x8, addend: 0x0, symName: __ZNSt3__115basic_streambufIcNS_11char_traitsIcEEE6sbumpcB7v160006Ev, symObjAddr: 0xAD14, symBinAddr: 0x10000E9B0, symSize: 0x78 }
  - { offsetInCU: 0x1A206, offset: 0x1A206, size: 0x8, addend: 0x0, symName: __ZNSt3__18ios_base5widthB7v160006El, symObjAddr: 0xAD8C, symBinAddr: 0x10000EA28, symSize: 0x2C }
  - { offsetInCU: 0x1A24C, offset: 0x1A24C, size: 0x8, addend: 0x0, symName: __ZNSt3__18ios_base18__setstate_nothrowB7v160006Ej, symObjAddr: 0xADB8, symBinAddr: 0x10000EA54, symSize: 0x64 }
  - { offsetInCU: 0x1A281, offset: 0x1A281, size: 0x8, addend: 0x0, symName: __ZNKSt3__19basic_iosIcNS_11char_traitsIcEEE10exceptionsB7v160006Ev, symObjAddr: 0xAE1C, symBinAddr: 0x10000EAB8, symSize: 0x24 }
  - { offsetInCU: 0x1A2A7, offset: 0x1A2A7, size: 0x8, addend: 0x0, symName: __ZNSt3__19basic_iosIcNS_11char_traitsIcEEE8setstateB7v160006Ej, symObjAddr: 0xAE40, symBinAddr: 0x10000EADC, symSize: 0x2C }
  - { offsetInCU: 0x1A2DC, offset: 0x1A2DC, size: 0x8, addend: 0x0, symName: __ZNSt3__111char_traitsIcE6assignERcRKc, symObjAddr: 0xAE7C, symBinAddr: 0x10000EB18, symSize: 0x24 }
  - { offsetInCU: 0x1A30D, offset: 0x1A30D, size: 0x8, addend: 0x0, symName: __ZNSt3__112basic_stringIcNS_11char_traitsIcEENS_9allocatorIcEEE18__get_long_pointerB7v160006Ev, symObjAddr: 0xAEA0, symBinAddr: 0x10000EB3C, symSize: 0x28 }
  - { offsetInCU: 0x1A333, offset: 0x1A333, size: 0x8, addend: 0x0, symName: __ZNSt3__112basic_stringIcNS_11char_traitsIcEENS_9allocatorIcEEE15__set_long_sizeB7v160006Em, symObjAddr: 0xAEC8, symBinAddr: 0x10000EB64, symSize: 0x38 }
  - { offsetInCU: 0x1A368, offset: 0x1A368, size: 0x8, addend: 0x0, symName: __ZNSt3__112basic_stringIcNS_11char_traitsIcEENS_9allocatorIcEEE19__get_short_pointerB7v160006Ev, symObjAddr: 0xAF00, symBinAddr: 0x10000EB9C, symSize: 0x28 }
  - { offsetInCU: 0x1A38E, offset: 0x1A38E, size: 0x8, addend: 0x0, symName: __ZNSt3__112basic_stringIcNS_11char_traitsIcEENS_9allocatorIcEEE16__set_short_sizeB7v160006Em, symObjAddr: 0xAF28, symBinAddr: 0x10000EBC4, symSize: 0x78 }
  - { offsetInCU: 0x1A3C3, offset: 0x1A3C3, size: 0x8, addend: 0x0, symName: __ZNSt3__114pointer_traitsIPcE10pointer_toB7v160006ERc, symObjAddr: 0xAFA0, symBinAddr: 0x10000EC3C, symSize: 0x14 }
  - { offsetInCU: 0x1A3F1, offset: 0x1A3F1, size: 0x8, addend: 0x0, symName: __ZNSt3__116allocator_traitsINS_9allocatorIcEEE8max_sizeB7v160006IS2_vEEmRKS2_, symObjAddr: 0xAFB4, symBinAddr: 0x10000EC50, symSize: 0x24 }
  - { offsetInCU: 0x1A41F, offset: 0x1A41F, size: 0x8, addend: 0x0, symName: __ZNSt3__114numeric_limitsImE3maxB7v160006Ev, symObjAddr: 0xAFD8, symBinAddr: 0x10000EC74, symSize: 0x14 }
  - { offsetInCU: 0x1A433, offset: 0x1A433, size: 0x8, addend: 0x0, symName: __ZNKSt3__19allocatorIcE8max_sizeB7v160006Ev, symObjAddr: 0xAFEC, symBinAddr: 0x10000EC88, symSize: 0x14 }
  - { offsetInCU: 0x1A459, offset: 0x1A459, size: 0x8, addend: 0x0, symName: __ZNSt3__123__libcpp_numeric_limitsImLb1EE3maxB7v160006Ev, symObjAddr: 0xB000, symBinAddr: 0x10000EC9C, symSize: 0x8 }
  - { offsetInCU: 0x1A46D, offset: 0x1A46D, size: 0x8, addend: 0x0, symName: __ZNKSt3__18ios_base5rdbufB7v160006Ev, symObjAddr: 0xB008, symBinAddr: 0x10000ECA4, symSize: 0x18 }
  - { offsetInCU: 0x1A493, offset: 0x1A493, size: 0x8, addend: 0x0, symName: __ZNSt3__111char_traitsIcE11to_int_typeEc, symObjAddr: 0xB020, symBinAddr: 0x10000ECBC, symSize: 0x14 }
  - { offsetInCU: 0x1A4B5, offset: 0x1A4B5, size: 0x8, addend: 0x0, symName: __Z7isasciii, symObjAddr: 0xB034, symBinAddr: 0x10000ECD0, symSize: 0x24 }
  - { offsetInCU: 0x1A4E2, offset: 0x1A4E2, size: 0x8, addend: 0x0, symName: __ZNKSt3__18ios_base10exceptionsB7v160006Ev, symObjAddr: 0xB058, symBinAddr: 0x10000ECF4, symSize: 0x18 }
  - { offsetInCU: 0x1A50A, offset: 0x1A50A, size: 0x8, addend: 0x0, symName: __ZNSt3__18ios_base8setstateB7v160006Ej, symObjAddr: 0xB070, symBinAddr: 0x10000ED0C, symSize: 0x34 }
  - { offsetInCU: 0x1A541, offset: 0x1A541, size: 0x8, addend: 0x0, symName: __ZNKSt3__19basic_iosIcNS_11char_traitsIcEEE5widenB7v160006Ec, symObjAddr: 0xB0A4, symBinAddr: 0x10000ED40, symSize: 0x84 }
  - { offsetInCU: 0x1A578, offset: 0x1A578, size: 0x8, addend: 0x0, symName: __ZNKSt3__15ctypeIcE5widenB7v160006Ec, symObjAddr: 0xB128, symBinAddr: 0x10000EDC4, symSize: 0x38 }
...
