---
triple:          'arm64-apple-darwin'
binary-path:     '/Users/yordanstoilov/Desktop/headrush/Coding/C_preparation/CPP-OOP/06.Inheritance/Serialize/build/main'
relocations:
  - { offsetInCU: 0x498A, offset: 0x498A, size: 0x8, addend: 0x0, symName: __ZNSt3__124__put_character_sequenceB7v160006IcNS_11char_traitsIcEEEERNS_13basic_ostreamIT_T0_EES7_PKS4_m, symObjAddr: 0x2660, symBinAddr: 0x100005530, symSize: 0x1EC }
  - { offsetInCU: 0x5E0C, offset: 0x5E0C, size: 0x8, addend: 0x0, symName: __ZNSt3__17advanceB7v160006IPNS_4pairIccEEmmvEEvRT_T0_, symObjAddr: 0x4FEC, symBinAddr: 0x100007EBC, symSize: 0x50 }
  - { offsetInCU: 0x895F, offset: 0x895F, size: 0x8, addend: 0x0, symName: __ZNSt3__1lsB7v160006INS_11char_traitsIcEEEERNS_13basic_ostreamIcT_EES6_PKc, symObjAddr: 0x130, symBinAddr: 0x100003000, symSize: 0x48 }
  - { offsetInCU: 0x89A5, offset: 0x89A5, size: 0x8, addend: 0x0, symName: __ZNSt3__1lsB7v160006IcNS_11char_traitsIcEENS_9allocatorIcEEEERNS_13basic_ostreamIT_T0_EES9_RKNS_12basic_stringIS6_S7_T1_EE, symObjAddr: 0x178, symBinAddr: 0x100003048, symSize: 0x4C }
  - { offsetInCU: 0x89FD, offset: 0x89FD, size: 0x8, addend: 0x0, symName: __ZNSt3__1lsB7v160006INS_11char_traitsIcEEEERNS_13basic_ostreamIcT_EES6_c, symObjAddr: 0x210, symBinAddr: 0x1000030E0, symSize: 0x34 }
  - { offsetInCU: 0x8A43, offset: 0x8A43, size: 0x8, addend: 0x0, symName: __ZNSt3__1rsB7v160006IcNS_11char_traitsIcEENS_9allocatorIcEEEERNS_13basic_istreamIT_T0_EES9_RNS_12basic_stringIS6_S7_T1_EE, symObjAddr: 0x4F8, symBinAddr: 0x1000033C8, symSize: 0x30C }
  - { offsetInCU: 0x8B10, offset: 0x8B10, size: 0x8, addend: 0x0, symName: __ZNSt3__1rsB7v160006IcNS_11char_traitsIcEEEERNS_13basic_istreamIT_T0_EES7_RS4_, symObjAddr: 0x830, symBinAddr: 0x100003700, symSize: 0x18C }
  - { offsetInCU: 0x8B92, offset: 0x8B92, size: 0x8, addend: 0x0, symName: __ZNSt3__15countB7v160006INS_11__wrap_iterIPcEEcEENS_15iterator_traitsIT_E15difference_typeES5_S5_RKT0_, symObjAddr: 0xF98, symBinAddr: 0x100003E68, symSize: 0x88 }
  - { offsetInCU: 0x94C7, offset: 0x94C7, size: 0x8, addend: 0x0, symName: __ZNSt3__17getlineB7v160006IcNS_11char_traitsIcEENS_9allocatorIcEEEERNS_13basic_istreamIT_T0_EES9_RNS_12basic_stringIS6_S7_T1_EES6_, symObjAddr: 0x1254, symBinAddr: 0x100004124, symSize: 0x234 }
  - { offsetInCU: 0x9585, offset: 0x9585, size: 0x8, addend: 0x0, symName: __ZNSt3__1neB7v160006IPcEEbRKNS_11__wrap_iterIT_EES6_, symObjAddr: 0x14B4, symBinAddr: 0x100004384, symSize: 0x34 }
  - { offsetInCU: 0x95D3, offset: 0x95D3, size: 0x8, addend: 0x0, symName: __ZNSt3__14copyB7v160006INS_11__wrap_iterIPhEES2_EET0_T_S5_S4_, symObjAddr: 0x1580, symBinAddr: 0x100004450, symSize: 0x50 }
  - { offsetInCU: 0x9757, offset: 0x9757, size: 0x8, addend: 0x0, symName: __ZNSt3__17getlineB7v160006IcNS_11char_traitsIcEENS_9allocatorIcEEEERNS_13basic_istreamIT_T0_EES9_RNS_12basic_stringIS6_S7_T1_EE, symObjAddr: 0x1964, symBinAddr: 0x100004834, symSize: 0x5C }
  - { offsetInCU: 0x97AF, offset: 0x97AF, size: 0x8, addend: 0x0, symName: __ZNSt3__1neB7v160006IcNS_11char_traitsIcEENS_9allocatorIcEEEEbRKNS_12basic_stringIT_T0_T1_EEPKS6_, symObjAddr: 0x19C0, symBinAddr: 0x100004890, symSize: 0x34 }
  - { offsetInCU: 0x9807, offset: 0x9807, size: 0x8, addend: 0x0, symName: __ZNSt3__14endlB7v160006IcNS_11char_traitsIcEEEERNS_13basic_ostreamIT_T0_EES7_, symObjAddr: 0x1A20, symBinAddr: 0x1000048F0, symSize: 0x58 }
  - { offsetInCU: 0x9852, offset: 0x9852, size: 0x8, addend: 0x0, symName: __ZNSt3__1eqB7v160006IPcEEbRKNS_11__wrap_iterIT_EES6_, symObjAddr: 0x1B40, symBinAddr: 0x100004A10, symSize: 0x48 }
  - { offsetInCU: 0x9895, offset: 0x9895, size: 0x8, addend: 0x0, symName: __ZNSt3__119__debug_db_insert_cB7v160006INS_12basic_stringIcNS_11char_traitsIcEENS_9allocatorIcEEEEEEvPT_, symObjAddr: 0x1DC8, symBinAddr: 0x100004C98, symSize: 0x10 }
  - { offsetInCU: 0x98C6, offset: 0x98C6, size: 0x8, addend: 0x0, symName: __ZNSt3__119__debug_db_insert_cB7v160006INS_6vectorINS_4pairIccEENS_9allocatorIS3_EEEEEEvPT_, symObjAddr: 0x1FA0, symBinAddr: 0x100004E70, symSize: 0x10 }
  - { offsetInCU: 0x98F7, offset: 0x98F7, size: 0x8, addend: 0x0, symName: __ZNSt3__118__debug_db_erase_cB7v160006INS_6vectorINS_4pairIccEENS_9allocatorIS3_EEEEEEvPT_, symObjAddr: 0x2264, symBinAddr: 0x100005134, symSize: 0x10 }
  - { offsetInCU: 0x9928, offset: 0x9928, size: 0x8, addend: 0x0, symName: __ZNSt3__112__to_addressB7v160006INS_4pairIccEEEEPT_S4_, symObjAddr: 0x2380, symBinAddr: 0x100005250, symSize: 0x14 }
  - { offsetInCU: 0x995D, offset: 0x995D, size: 0x8, addend: 0x0, symName: __ZNSt3__119__libcpp_deallocateB7v160006EPvmm, symObjAddr: 0x24A0, symBinAddr: 0x100005370, symSize: 0x60 }
  - { offsetInCU: 0x99C2, offset: 0x99C2, size: 0x8, addend: 0x0, symName: __ZNSt3__124__is_overaligned_for_newB7v160006Em, symObjAddr: 0x2500, symBinAddr: 0x1000053D0, symSize: 0x20 }
  - { offsetInCU: 0x99F0, offset: 0x99F0, size: 0x8, addend: 0x0, symName: __ZNSt3__127__do_deallocate_handle_sizeB7v160006IJSt11align_val_tEEEvPvmDpT_, symObjAddr: 0x2520, symBinAddr: 0x1000053F0, symSize: 0x30 }
  - { offsetInCU: 0x9A43, offset: 0x9A43, size: 0x8, addend: 0x0, symName: __ZNSt3__127__do_deallocate_handle_sizeB7v160006IJEEEvPvmDpT_, symObjAddr: 0x2550, symBinAddr: 0x100005420, symSize: 0x28 }
  - { offsetInCU: 0x9A81, offset: 0x9A81, size: 0x8, addend: 0x0, symName: __ZNSt3__124__libcpp_operator_deleteB7v160006IJPvSt11align_val_tEEEvDpT_, symObjAddr: 0x2578, symBinAddr: 0x100005448, symSize: 0x2C }
  - { offsetInCU: 0x9ACA, offset: 0x9ACA, size: 0x8, addend: 0x0, symName: __ZNSt3__124__libcpp_operator_deleteB7v160006IJPvEEEvDpT_, symObjAddr: 0x25A4, symBinAddr: 0x100005474, symSize: 0x24 }
  - { offsetInCU: 0x9AFF, offset: 0x9AFF, size: 0x8, addend: 0x0, symName: __ZNSt3__116__pad_and_outputB7v160006IcNS_11char_traitsIcEEEENS_19ostreambuf_iteratorIT_T0_EES6_PKS4_S8_S8_RNS_8ios_baseES4_, symObjAddr: 0x289C, symBinAddr: 0x10000576C, symSize: 0x240 }
  - { offsetInCU: 0x9BCE, offset: 0x9BCE, size: 0x8, addend: 0x0, symName: __ZNSt3__112__to_addressB7v160006IcEEPT_S2_, symObjAddr: 0x2D14, symBinAddr: 0x100005BE4, symSize: 0x14 }
  - { offsetInCU: 0x9C36, offset: 0x9C36, size: 0x8, addend: 0x0, symName: __ZNSt3__19use_facetB7v160006INS_5ctypeIcEEEERKT_RKNS_6localeE, symObjAddr: 0x2F94, symBinAddr: 0x100005E64, symSize: 0x2C }
  - { offsetInCU: 0xA016, offset: 0xA016, size: 0x8, addend: 0x0, symName: __ZNSt3__118__constexpr_strlenB7v160006EPKc, symObjAddr: 0x302C, symBinAddr: 0x100005EFC, symSize: 0x24 }
  - { offsetInCU: 0xA042, offset: 0xA042, size: 0x8, addend: 0x0, symName: __ZNSt3__112__to_addressB7v160006IKcEEPT_S3_, symObjAddr: 0x30CC, symBinAddr: 0x100005F9C, symSize: 0x14 }
  - { offsetInCU: 0xA294, offset: 0xA294, size: 0x8, addend: 0x0, symName: __ZNSt3__125__debug_db_invalidate_allB7v160006INS_12basic_stringIcNS_11char_traitsIcEENS_9allocatorIcEEEEEEvPT_, symObjAddr: 0x35AC, symBinAddr: 0x10000647C, symSize: 0x10 }
  - { offsetInCU: 0xA4B1, offset: 0xA4B1, size: 0x8, addend: 0x0, symName: __ZNSt3__13maxB7v160006ImEERKT_S3_S3_, symObjAddr: 0x3D40, symBinAddr: 0x100006C10, symSize: 0x2C }
  - { offsetInCU: 0xA4F4, offset: 0xA4F4, size: 0x8, addend: 0x0, symName: __ZNSt3__13minB7v160006ImEERKT_S3_S3_, symObjAddr: 0x3D6C, symBinAddr: 0x100006C3C, symSize: 0x2C }
  - { offsetInCU: 0xA537, offset: 0xA537, size: 0x8, addend: 0x0, symName: __ZNSt3__13minB7v160006ImNS_6__lessImmEEEERKT_S5_S5_T0_, symObjAddr: 0x3DE4, symBinAddr: 0x100006CB4, symSize: 0x54 }
  - { offsetInCU: 0xA5CC, offset: 0xA5CC, size: 0x8, addend: 0x0, symName: __ZNSt3__120__throw_length_errorB7v160006EPKc, symObjAddr: 0x3EB8, symBinAddr: 0x100006D88, symSize: 0x64 }
  - { offsetInCU: 0xA5F4, offset: 0xA5F4, size: 0x8, addend: 0x0, symName: __ZNSt3__13maxB7v160006ImNS_6__lessImmEEEERKT_S5_S5_T0_, symObjAddr: 0x3F9C, symBinAddr: 0x100006E6C, symSize: 0x54 }
  - { offsetInCU: 0xA64E, offset: 0xA64E, size: 0x8, addend: 0x0, symName: __ZNSt3__119__allocate_at_leastB7v160006INS_9allocatorINS_4pairIccEEEEEENS_19__allocation_resultINS_16allocator_traitsIT_E7pointerEEERS7_m, symObjAddr: 0x4100, symBinAddr: 0x100006FD0, symSize: 0x40 }
  - { offsetInCU: 0xA691, offset: 0xA691, size: 0x8, addend: 0x0, symName: __ZNSt3__117__libcpp_allocateB7v160006Emm, symObjAddr: 0x4284, symBinAddr: 0x100007154, symSize: 0x60 }
  - { offsetInCU: 0xA6EB, offset: 0xA6EB, size: 0x8, addend: 0x0, symName: __ZNSt3__121__libcpp_operator_newB7v160006IJmSt11align_val_tEEEPvDpT_, symObjAddr: 0x42E4, symBinAddr: 0x1000071B4, symSize: 0x2C }
  - { offsetInCU: 0xA738, offset: 0xA738, size: 0x8, addend: 0x0, symName: __ZNSt3__121__libcpp_operator_newB7v160006IJmEEEPvDpT_, symObjAddr: 0x4310, symBinAddr: 0x1000071E0, symSize: 0x24 }
  - { offsetInCU: 0xA771, offset: 0xA771, size: 0x8, addend: 0x0, symName: __ZNSt3__142__uninitialized_allocator_move_if_noexceptB7v160006INS_9allocatorINS_4pairIccEEEENS_16reverse_iteratorIPS3_EES7_S7_EET2_RT_T0_T1_S8_, symObjAddr: 0x4398, symBinAddr: 0x100007268, symSize: 0x12C }
  - { offsetInCU: 0xA811, offset: 0xA811, size: 0x8, addend: 0x0, symName: __ZNSt3__14swapB7v160006IPNS_4pairIccEEEENS_9enable_ifIXaasr21is_move_constructibleIT_EE5valuesr18is_move_assignableIS5_EE5valueEvE4typeERS5_S8_, symObjAddr: 0x4510, symBinAddr: 0x1000073E0, symSize: 0x3C }
  - { offsetInCU: 0xA862, offset: 0xA862, size: 0x8, addend: 0x0, symName: __ZNSt3__125__debug_db_invalidate_allB7v160006INS_6vectorINS_4pairIccEENS_9allocatorIS3_EEEEEEvPT_, symObjAddr: 0x45F8, symBinAddr: 0x1000074C8, symSize: 0x10 }
  - { offsetInCU: 0xA893, offset: 0xA893, size: 0x8, addend: 0x0, symName: __ZNSt3__122__make_exception_guardB7v160006INS_29_AllocatorDestroyRangeReverseINS_9allocatorINS_4pairIccEEEENS_16reverse_iteratorIPS4_EEEEEENS_28__exception_guard_exceptionsIT_EESB_, symObjAddr: 0x4608, symBinAddr: 0x1000074D8, symSize: 0x4C }
  - { offsetInCU: 0xA8C9, offset: 0xA8C9, size: 0x8, addend: 0x0, symName: __ZNSt3__1neB7v160006IPNS_4pairIccEES3_EEbRKNS_16reverse_iteratorIT_EERKNS4_IT0_EE, symObjAddr: 0x4698, symBinAddr: 0x100007568, symSize: 0x48 }
  - { offsetInCU: 0xA915, offset: 0xA915, size: 0x8, addend: 0x0, symName: __ZNSt3__112__to_addressB7v160006INS_16reverse_iteratorIPNS_4pairIccEEEEvEENS_5decayIDTclsr19__to_address_helperIT_EE6__callclsr3stdE7declvalIRKS7_EEEEE4typeES9_, symObjAddr: 0x46E0, symBinAddr: 0x1000075B0, symSize: 0x24 }
  - { offsetInCU: 0xA974, offset: 0xA974, size: 0x8, addend: 0x0, symName: __ZNSt3__119__allocator_destroyB7v160006INS_9allocatorINS_4pairIccEEEENS_16reverse_iteratorINS5_IPS3_EEEES8_EEvRT_T0_T1_, symObjAddr: 0x4990, symBinAddr: 0x100007860, symSize: 0x70 }
  - { offsetInCU: 0xA9D9, offset: 0xA9D9, size: 0x8, addend: 0x0, symName: __ZNSt3__1neB7v160006INS_16reverse_iteratorIPNS_4pairIccEEEES5_EEbRKNS1_IT_EERKNS1_IT0_EE, symObjAddr: 0x4A3C, symBinAddr: 0x10000790C, symSize: 0x60 }
  - { offsetInCU: 0xAA25, offset: 0xAA25, size: 0x8, addend: 0x0, symName: __ZNSt3__112__to_addressB7v160006INS_16reverse_iteratorINS1_IPNS_4pairIccEEEEEEvEENS_5decayIDTclsr19__to_address_helperIT_EE6__callclsr3stdE7declvalIRKS8_EEEEE4typeESA_, symObjAddr: 0x4A9C, symBinAddr: 0x10000796C, symSize: 0x24 }
  - { offsetInCU: 0xAA84, offset: 0xAA84, size: 0x8, addend: 0x0, symName: __ZNSt3__18distanceB7v160006IPNS_4pairIccEEEENS_15iterator_traitsIT_E15difference_typeES5_S5_, symObjAddr: 0x4FC0, symBinAddr: 0x100007E90, symSize: 0x2C }
  - { offsetInCU: 0xAAC7, offset: 0xAAC7, size: 0x8, addend: 0x0, symName: __ZNSt3__14copyB7v160006IPNS_4pairIccEES3_EET0_T_S5_S4_, symObjAddr: 0x503C, symBinAddr: 0x100007F0C, symSize: 0x40 }
  - { offsetInCU: 0xAB21, offset: 0xAB21, size: 0x8, addend: 0x0, symName: __ZNSt3__110__distanceB7v160006IPNS_4pairIccEEEENS_15iterator_traitsIT_E15difference_typeES5_S5_NS_26random_access_iterator_tagE, symObjAddr: 0x52A0, symBinAddr: 0x100008170, symSize: 0x28 }
  - { offsetInCU: 0xAB6E, offset: 0xAB6E, size: 0x8, addend: 0x0, symName: __ZNSt3__121__convert_to_integralB7v160006Em, symObjAddr: 0x52C8, symBinAddr: 0x100008198, symSize: 0x14 }
  - { offsetInCU: 0xAB9A, offset: 0xAB9A, size: 0x8, addend: 0x0, symName: __ZNSt3__19__advanceB7v160006IPNS_4pairIccEEEEvRT_NS_15iterator_traitsIS4_E15difference_typeENS_26random_access_iterator_tagE, symObjAddr: 0x52DC, symBinAddr: 0x1000081AC, symSize: 0x28 }
  - { offsetInCU: 0xABE3, offset: 0xABE3, size: 0x8, addend: 0x0, symName: __ZNSt3__16__copyB7v160006INS_17_ClassicAlgPolicyEPNS_4pairIccEES4_S4_EENS2_IT0_T2_EES5_T1_S6_, symObjAddr: 0x5304, symBinAddr: 0x1000081D4, symSize: 0x44 }
  - { offsetInCU: 0xAC4F, offset: 0xAC4F, size: 0x8, addend: 0x0, symName: __ZNSt3__123__dispatch_copy_or_moveB7v160006INS_17_ClassicAlgPolicyENS_11__copy_loopIS1_EENS_14__copy_trivialEPNS_4pairIccEES7_S7_EENS5_IT2_T4_EES8_T3_S9_, symObjAddr: 0x5348, symBinAddr: 0x100008218, symSize: 0x44 }
  - { offsetInCU: 0xACCD, offset: 0xACCD, size: 0x8, addend: 0x0, symName: __ZNSt3__121__unwrap_and_dispatchB7v160006INS_10__overloadINS_11__copy_loopINS_17_ClassicAlgPolicyEEENS_14__copy_trivialEEEPNS_4pairIccEES9_S9_Li0EEENS7_IT0_T2_EESA_T1_SB_, symObjAddr: 0x538C, symBinAddr: 0x10000825C, symSize: 0xB4 }
  - { offsetInCU: 0xAD5B, offset: 0xAD5B, size: 0x8, addend: 0x0, symName: __ZNSt3__114__unwrap_rangeB7v160006IPNS_4pairIccEES3_EENS1_IT0_S4_EET_S6_, symObjAddr: 0x5440, symBinAddr: 0x100008310, symSize: 0x60 }
  - { offsetInCU: 0xAED6, offset: 0xAED6, size: 0x8, addend: 0x0, symName: __ZNSt3__113__unwrap_iterB7v160006IPNS_4pairIccEENS_18__unwrap_iter_implIS3_Lb1EEELi0EEEDTclsrT0_8__unwrapclsr3stdE7declvalIT_EEEES7_, symObjAddr: 0x5528, symBinAddr: 0x1000083F8, symSize: 0x24 }
  - { offsetInCU: 0xAF1A, offset: 0xAF1A, size: 0x8, addend: 0x0, symName: __ZNSt3__19make_pairB7v160006IPNS_4pairIccEES3_EENS1_INS_18__unwrap_ref_decayIT_E4typeENS4_IT0_E4typeEEEOS5_OS8_, symObjAddr: 0x554C, symBinAddr: 0x10000841C, symSize: 0x38 }
  - { offsetInCU: 0xAF69, offset: 0xAF69, size: 0x8, addend: 0x0, symName: __ZNSt3__114__rewrap_rangeB7v160006IPNS_4pairIccEES3_EET_S4_T0_, symObjAddr: 0x5584, symBinAddr: 0x100008454, symSize: 0x2C }
  - { offsetInCU: 0xAFB5, offset: 0xAFB5, size: 0x8, addend: 0x0, symName: __ZNSt3__113__rewrap_iterB7v160006IPNS_4pairIccEES3_NS_18__unwrap_iter_implIS3_Lb1EEEEET_S6_T0_, symObjAddr: 0x55B0, symBinAddr: 0x100008480, symSize: 0x3C }
  - { offsetInCU: 0xB05D, offset: 0xB05D, size: 0x8, addend: 0x0, symName: __ZNSt3__130__uninitialized_allocator_copyB7v160006INS_9allocatorINS_4pairIccEEEEPS3_S5_S5_EET2_RT_T0_T1_S6_, symObjAddr: 0x5700, symBinAddr: 0x1000085D0, symSize: 0xF4 }
  - { offsetInCU: 0xB0FB, offset: 0xB0FB, size: 0x8, addend: 0x0, symName: __ZNSt3__122__make_exception_guardB7v160006INS_29_AllocatorDestroyRangeReverseINS_9allocatorINS_4pairIccEEEEPS4_EEEENS_28__exception_guard_exceptionsIT_EES9_, symObjAddr: 0x57F4, symBinAddr: 0x1000086C4, symSize: 0x4C }
  - { offsetInCU: 0xB131, offset: 0xB131, size: 0x8, addend: 0x0, symName: __ZNSt3__119__allocator_destroyB7v160006INS_9allocatorINS_4pairIccEEEENS_16reverse_iteratorIPS3_EES7_EEvRT_T0_T1_, symObjAddr: 0x5A7C, symBinAddr: 0x10000894C, symSize: 0x70 }
  - { offsetInCU: 0xB194, offset: 0xB194, size: 0x8, addend: 0x0, symName: __ZNSt3__119__debug_db_insert_cB7v160006INS_6vectorIhNS_9allocatorIhEEEEEEvPT_, symObjAddr: 0x5C94, symBinAddr: 0x100008B64, symSize: 0x10 }
  - { offsetInCU: 0xB1C5, offset: 0xB1C5, size: 0x8, addend: 0x0, symName: __ZNSt3__118__debug_db_erase_cB7v160006INS_6vectorIhNS_9allocatorIhEEEEEEvPT_, symObjAddr: 0x5F58, symBinAddr: 0x100008E28, symSize: 0x10 }
  - { offsetInCU: 0xB1F6, offset: 0xB1F6, size: 0x8, addend: 0x0, symName: __ZNSt3__112__to_addressB7v160006IhEEPT_S2_, symObjAddr: 0x606C, symBinAddr: 0x100008F3C, symSize: 0x14 }
  - { offsetInCU: 0xB22B, offset: 0xB22B, size: 0x8, addend: 0x0, symName: __ZNSt3__119__allocate_at_leastB7v160006INS_9allocatorIhEEEENS_19__allocation_resultINS_16allocator_traitsIT_E7pointerEEERS5_m, symObjAddr: 0x6A08, symBinAddr: 0x1000098D8, symSize: 0x40 }
  - { offsetInCU: 0xB26E, offset: 0xB26E, size: 0x8, addend: 0x0, symName: __ZNSt3__142__uninitialized_allocator_move_if_noexceptB7v160006INS_9allocatorIhEENS_16reverse_iteratorIPhEES5_hvEET1_RT_T0_S9_S6_, symObjAddr: 0x6BBC, symBinAddr: 0x100009A8C, symSize: 0x78 }
  - { offsetInCU: 0xB2EB, offset: 0xB2EB, size: 0x8, addend: 0x0, symName: __ZNSt3__14swapB7v160006IPhEENS_9enable_ifIXaasr21is_move_constructibleIT_EE5valuesr18is_move_assignableIS3_EE5valueEvE4typeERS3_S6_, symObjAddr: 0x6C80, symBinAddr: 0x100009B50, symSize: 0x3C }
  - { offsetInCU: 0xB33C, offset: 0xB33C, size: 0x8, addend: 0x0, symName: __ZNSt3__125__debug_db_invalidate_allB7v160006INS_6vectorIhNS_9allocatorIhEEEEEEvPT_, symObjAddr: 0x6D68, symBinAddr: 0x100009C38, symSize: 0x10 }
  - { offsetInCU: 0xB36D, offset: 0xB36D, size: 0x8, addend: 0x0, symName: __ZNSt3__14moveB7v160006INS_16reverse_iteratorIPhEES3_EET0_T_S5_S4_, symObjAddr: 0x6D78, symBinAddr: 0x100009C48, symSize: 0x78 }
  - { offsetInCU: 0xB3C7, offset: 0xB3C7, size: 0x8, addend: 0x0, symName: __ZNSt3__16__moveB7v160006INS_17_ClassicAlgPolicyENS_16reverse_iteratorIPhEES4_S4_EENS_4pairIT0_T2_EES6_T1_S7_, symObjAddr: 0x6DF0, symBinAddr: 0x100009CC0, symSize: 0x64 }
  - { offsetInCU: 0xB433, offset: 0xB433, size: 0x8, addend: 0x0, symName: __ZNSt3__123__dispatch_copy_or_moveB7v160006INS_17_ClassicAlgPolicyENS_11__move_loopIS1_EENS_14__move_trivialENS_16reverse_iteratorIPhEES7_S7_EENS_4pairIT2_T4_EES9_T3_SA_, symObjAddr: 0x6E54, symBinAddr: 0x100009D24, symSize: 0x64 }
  - { offsetInCU: 0xB4B1, offset: 0xB4B1, size: 0x8, addend: 0x0, symName: __ZNSt3__121__unwrap_and_dispatchB7v160006INS_10__overloadINS_11__move_loopINS_17_ClassicAlgPolicyEEENS_14__move_trivialEEENS_16reverse_iteratorIPhEES9_S9_Li0EEENS_4pairIT0_T2_EESB_T1_SC_, symObjAddr: 0x6EB8, symBinAddr: 0x100009D88, symSize: 0x12C }
  - { offsetInCU: 0xB541, offset: 0xB541, size: 0x8, addend: 0x0, symName: __ZNSt3__114__unwrap_rangeB7v160006INS_16reverse_iteratorIPhEES3_EENS_4pairIT0_S5_EET_S7_, symObjAddr: 0x6FE4, symBinAddr: 0x100009EB4, symSize: 0x84 }
  - { offsetInCU: 0xB6B3, offset: 0xB6B3, size: 0x8, addend: 0x0, symName: __ZNSt3__113__unwrap_iterB7v160006INS_16reverse_iteratorIPhEENS_18__unwrap_iter_implIS3_Lb0EEELi0EEEDTclsrT0_8__unwrapclsr3stdE7declvalIT_EEEES7_, symObjAddr: 0x7108, symBinAddr: 0x100009FD8, symSize: 0x44 }
  - { offsetInCU: 0xB6F7, offset: 0xB6F7, size: 0x8, addend: 0x0, symName: __ZNSt3__19make_pairB7v160006INS_16reverse_iteratorIPhEES3_EENS_4pairINS_18__unwrap_ref_decayIT_E4typeENS5_IT0_E4typeEEEOS6_OS9_, symObjAddr: 0x714C, symBinAddr: 0x10000A01C, symSize: 0x38 }
  - { offsetInCU: 0xB746, offset: 0xB746, size: 0x8, addend: 0x0, symName: __ZNSt3__114__rewrap_rangeB7v160006INS_16reverse_iteratorIPhEES3_EET_S4_T0_, symObjAddr: 0x7184, symBinAddr: 0x10000A054, symSize: 0x5C }
  - { offsetInCU: 0xB792, offset: 0xB792, size: 0x8, addend: 0x0, symName: __ZNSt3__113__rewrap_iterB7v160006INS_16reverse_iteratorIPhEES3_NS_18__unwrap_iter_implIS3_Lb0EEEEET_S6_T0_, symObjAddr: 0x71E0, symBinAddr: 0x10000A0B0, symSize: 0x74 }
  - { offsetInCU: 0xB7E7, offset: 0xB7E7, size: 0x8, addend: 0x0, symName: __ZNSt3__1neB7v160006IPhS1_EEbRKNS_16reverse_iteratorIT_EERKNS2_IT0_EE, symObjAddr: 0x7254, symBinAddr: 0x10000A124, symSize: 0x48 }
  - { offsetInCU: 0xB8E5, offset: 0xB8E5, size: 0x8, addend: 0x0, symName: __ZNSt3__16__copyB7v160006INS_17_ClassicAlgPolicyENS_11__wrap_iterIPhEES4_S3_EENS_4pairIT0_T2_EES6_T1_S7_, symObjAddr: 0x79D4, symBinAddr: 0x10000A8A4, symSize: 0x54 }
  - { offsetInCU: 0xB951, offset: 0xB951, size: 0x8, addend: 0x0, symName: __ZNSt3__123__dispatch_copy_or_moveB7v160006INS_17_ClassicAlgPolicyENS_11__copy_loopIS1_EENS_14__copy_trivialENS_11__wrap_iterIPhEES7_S6_EENS_4pairIT2_T4_EES9_T3_SA_, symObjAddr: 0x7A28, symBinAddr: 0x10000A8F8, symSize: 0x54 }
  - { offsetInCU: 0xB9CF, offset: 0xB9CF, size: 0x8, addend: 0x0, symName: __ZNSt3__121__unwrap_and_dispatchB7v160006INS_10__overloadINS_11__copy_loopINS_17_ClassicAlgPolicyEEENS_14__copy_trivialEEENS_11__wrap_iterIPhEES9_S8_Li0EEENS_4pairIT0_T2_EESB_T1_SC_, symObjAddr: 0x7A7C, symBinAddr: 0x10000A94C, symSize: 0xCC }
  - { offsetInCU: 0xBA5D, offset: 0xBA5D, size: 0x8, addend: 0x0, symName: __ZNSt3__114__unwrap_rangeB7v160006INS_11__wrap_iterIPhEES2_EENS_4pairIT0_S5_EET_S7_, symObjAddr: 0x7B48, symBinAddr: 0x10000AA18, symSize: 0x70 }
  - { offsetInCU: 0xBBF2, offset: 0xBBF2, size: 0x8, addend: 0x0, symName: __ZNSt3__113__unwrap_iterB7v160006IPhNS_18__unwrap_iter_implIS1_Lb1EEELi0EEEDTclsrT0_8__unwrapclsr3stdE7declvalIT_EEEES5_, symObjAddr: 0x7C00, symBinAddr: 0x10000AAD0, symSize: 0x24 }
  - { offsetInCU: 0xBC36, offset: 0xBC36, size: 0x8, addend: 0x0, symName: __ZNSt3__19make_pairB7v160006INS_11__wrap_iterIPhEES2_EENS_4pairINS_18__unwrap_ref_decayIT_E4typeENS5_IT0_E4typeEEEOS6_OS9_, symObjAddr: 0x7C24, symBinAddr: 0x10000AAF4, symSize: 0x38 }
  - { offsetInCU: 0xBC85, offset: 0xBC85, size: 0x8, addend: 0x0, symName: __ZNSt3__114__rewrap_rangeB7v160006INS_11__wrap_iterIPhEES2_EET_S4_T0_, symObjAddr: 0x7C5C, symBinAddr: 0x10000AB2C, symSize: 0x3C }
  - { offsetInCU: 0xBCD1, offset: 0xBCD1, size: 0x8, addend: 0x0, symName: __ZNSt3__113__rewrap_iterB7v160006IPhS1_NS_18__unwrap_iter_implIS1_Lb1EEEEET_S4_T0_, symObjAddr: 0x7C98, symBinAddr: 0x10000AB68, symSize: 0x3C }
  - { offsetInCU: 0xBD26, offset: 0xBD26, size: 0x8, addend: 0x0, symName: __ZNSt3__19make_pairB7v160006IPhS1_EENS_4pairINS_18__unwrap_ref_decayIT_E4typeENS3_IT0_E4typeEEEOS4_OS7_, symObjAddr: 0x7CD4, symBinAddr: 0x10000ABA4, symSize: 0x38 }
  - { offsetInCU: 0xBD75, offset: 0xBD75, size: 0x8, addend: 0x0, symName: __ZNSt3__113__unwrap_iterB7v160006INS_11__wrap_iterIPhEENS_18__unwrap_iter_implIS3_Lb1EEELi0EEEDTclsrT0_8__unwrapclsr3stdE7declvalIT_EEEES7_, symObjAddr: 0x7D0C, symBinAddr: 0x10000ABDC, symSize: 0x2C }
  - { offsetInCU: 0xBE0C, offset: 0xBE0C, size: 0x8, addend: 0x0, symName: __ZNSt3__112__to_addressB7v160006INS_11__wrap_iterIPhEEvEENS_5decayIDTclsr19__to_address_helperIT_EE6__callclsr3stdE7declvalIRKS5_EEEEE4typeES7_, symObjAddr: 0x7DD0, symBinAddr: 0x10000ACA0, symSize: 0x24 }
  - { offsetInCU: 0xBEEB, offset: 0xBEEB, size: 0x8, addend: 0x0, symName: __ZNSt3__119__copy_trivial_implB7v160006IhhEENS_4pairIPT_PT0_EES3_S3_S5_, symObjAddr: 0x7E68, symBinAddr: 0x10000AD38, symSize: 0x7C }
  - { offsetInCU: 0xBF53, offset: 0xBF53, size: 0x8, addend: 0x0, symName: __ZNSt3__19make_pairB7v160006IRPhS1_EENS_4pairINS_18__unwrap_ref_decayIT_E4typeENS4_IT0_E4typeEEEOS5_OS8_, symObjAddr: 0x7EE4, symBinAddr: 0x10000ADB4, symSize: 0x38 }
  - { offsetInCU: 0xC0C9, offset: 0xC0C9, size: 0x8, addend: 0x0, symName: __ZNSt3__113__rewrap_iterB7v160006INS_11__wrap_iterIPhEES2_NS_18__unwrap_iter_implIS3_Lb1EEEEET_S6_T0_, symObjAddr: 0x8020, symBinAddr: 0x10000AEF0, symSize: 0x4C }
  - { offsetInCU: 0xC11E, offset: 0xC11E, size: 0x8, addend: 0x0, symName: __ZNSt3__1eqB7v160006IcNS_11char_traitsIcEENS_9allocatorIcEEEEbRKNS_12basic_stringIT_T0_T1_EEPKS6_, symObjAddr: 0x8260, symBinAddr: 0x10000B130, symSize: 0xAC }
  - { offsetInCU: 0xC568, offset: 0xC568, size: 0x8, addend: 0x0, symName: __ZSt28__throw_bad_array_new_lengthB7v160006v, symObjAddr: 0x4250, symBinAddr: 0x100007120, symSize: 0x34 }
  - { offsetInCU: 0xCB4A, offset: 0xCB4A, size: 0x8, addend: 0x0, symName: __ZNSt3__16vectorINS_4pairIccEENS_9allocatorIS2_EEE26__swap_out_circular_bufferERNS_14__split_bufferIS2_RS4_EE, symObjAddr: 0x3B80, symBinAddr: 0x100006A50, symSize: 0x118 }
  - { offsetInCU: 0xCD91, offset: 0xCD91, size: 0x8, addend: 0x0, symName: __ZNSt3__16vectorIhNS_9allocatorIhEEE26__swap_out_circular_bufferERNS_14__split_bufferIhRS2_EE, symObjAddr: 0x66A0, symBinAddr: 0x100009570, symSize: 0x118 }
  - { offsetInCU: 0xF00A, offset: 0xF00A, size: 0x8, addend: 0x0, symName: __ZlsRNSt3__113basic_ostreamIcNS_11char_traitsIcEEEERK7Company, symObjAddr: 0x0, symBinAddr: 0x100002ED0, symSize: 0x130 }
  - { offsetInCU: 0xF07D, offset: 0xF07D, size: 0x8, addend: 0x0, symName: __ZNKSt3__16vectorINS_4pairIccEENS_9allocatorIS2_EEE4sizeB7v160006Ev, symObjAddr: 0x1C4, symBinAddr: 0x100003094, symSize: 0x28 }
  - { offsetInCU: 0xF0A3, offset: 0xF0A3, size: 0x8, addend: 0x0, symName: __ZNKSt3__16vectorINS_4pairIccEENS_9allocatorIS2_EEEixB7v160006Em, symObjAddr: 0x1EC, symBinAddr: 0x1000030BC, symSize: 0x24 }
  - { offsetInCU: 0xF0D9, offset: 0xF0D9, size: 0x8, addend: 0x0, symName: __ZrsRNSt3__113basic_istreamIcNS_11char_traitsIcEEEER7Company, symObjAddr: 0x244, symBinAddr: 0x100003114, symSize: 0x28C }
  - { offsetInCU: 0xF152, offset: 0xF152, size: 0x8, addend: 0x0, symName: __ZNKSt3__19basic_iosIcNS_11char_traitsIcEEEntB7v160006Ev, symObjAddr: 0x4D0, symBinAddr: 0x1000033A0, symSize: 0x28 }
  - { offsetInCU: 0xF178, offset: 0xF178, size: 0x8, addend: 0x0, symName: __ZNSt3__16vectorINS_4pairIccEENS_9allocatorIS2_EEEC1B7v160006Ev, symObjAddr: 0x804, symBinAddr: 0x1000036D4, symSize: 0x2C }
  - { offsetInCU: 0xF1A2, offset: 0xF1A2, size: 0x8, addend: 0x0, symName: __ZNKSt3__16vectorINS_4pairIccEENS_9allocatorIS2_EEE5emptyB7v160006Ev, symObjAddr: 0x9BC, symBinAddr: 0x10000388C, symSize: 0x28 }
  - { offsetInCU: 0xF1C8, offset: 0xF1C8, size: 0x8, addend: 0x0, symName: __ZNSt9exceptionC1B7v160006Ev, symObjAddr: 0x9E4, symBinAddr: 0x1000038B4, symSize: 0x2C }
  - { offsetInCU: 0xF1F2, offset: 0xF1F2, size: 0x8, addend: 0x0, symName: __ZNSt3__16vectorINS_4pairIccEENS_9allocatorIS2_EEE9push_backB7v160006EOS2_, symObjAddr: 0xA10, symBinAddr: 0x1000038E0, symSize: 0x6C }
  - { offsetInCU: 0xF229, offset: 0xF229, size: 0x8, addend: 0x0, symName: __ZNSt3__14pairIccEC1B7v160006IRcS3_LPv0EEEOT_OT0_, symObjAddr: 0xA7C, symBinAddr: 0x10000394C, symSize: 0x3C }
  - { offsetInCU: 0xF287, offset: 0xF287, size: 0x8, addend: 0x0, symName: __ZNSt3__16vectorINS_4pairIccEENS_9allocatorIS2_EEEaSB7v160006ERKS5_, symObjAddr: 0xAB8, symBinAddr: 0x100003988, symSize: 0x68 }
  - { offsetInCU: 0xF2BE, offset: 0xF2BE, size: 0x8, addend: 0x0, symName: __ZNSt3__16vectorINS_4pairIccEENS_9allocatorIS2_EEED1B7v160006Ev, symObjAddr: 0xB20, symBinAddr: 0x1000039F0, symSize: 0x2C }
  - { offsetInCU: 0xF2E7, offset: 0xF2E7, size: 0x8, addend: 0x0, symName: __Z17serializeToMemoryNSt3__112basic_stringIcNS_11char_traitsIcEENS_9allocatorIcEEEERm, symObjAddr: 0xB4C, symBinAddr: 0x100003A1C, symSize: 0x420 }
  - { offsetInCU: 0xF467, offset: 0xF467, size: 0x8, addend: 0x0, symName: __ZNSt3__16vectorIhNS_9allocatorIhEEEC1B7v160006Ev, symObjAddr: 0xF6C, symBinAddr: 0x100003E3C, symSize: 0x2C }
  - { offsetInCU: 0xF491, offset: 0xF491, size: 0x8, addend: 0x0, symName: __ZNSt3__112basic_stringIcNS_11char_traitsIcEENS_9allocatorIcEEE5beginB7v160006Ev, symObjAddr: 0x1020, symBinAddr: 0x100003EF0, symSize: 0x4C }
  - { offsetInCU: 0xF4B7, offset: 0xF4B7, size: 0x8, addend: 0x0, symName: __ZNSt3__112basic_stringIcNS_11char_traitsIcEENS_9allocatorIcEEE3endB7v160006Ev, symObjAddr: 0x106C, symBinAddr: 0x100003F3C, symSize: 0x54 }
  - { offsetInCU: 0xF4DD, offset: 0xF4DD, size: 0x8, addend: 0x0, symName: __ZNSt3__16vectorIhNS_9allocatorIhEEE9push_backB7v160006EOh, symObjAddr: 0x10C0, symBinAddr: 0x100003F90, symSize: 0x6C }
  - { offsetInCU: 0xF5DC, offset: 0xF5DC, size: 0x8, addend: 0x0, symName: __ZNSt3__119basic_istringstreamIcNS_11char_traitsIcEENS_9allocatorIcEEEC1B7v160006ERKNS_12basic_stringIcS2_S4_EEj, symObjAddr: 0x112C, symBinAddr: 0x100003FFC, symSize: 0xFC }
  - { offsetInCU: 0xF624, offset: 0xF624, size: 0x8, addend: 0x0, symName: __ZNSt3__112basic_stringIcNS_11char_traitsIcEENS_9allocatorIcEEEC1B7v160006Ev, symObjAddr: 0x1228, symBinAddr: 0x1000040F8, symSize: 0x2C }
  - { offsetInCU: 0xF64E, offset: 0xF64E, size: 0x8, addend: 0x0, symName: __ZNKSt3__19basic_iosIcNS_11char_traitsIcEEEcvbB7v160006Ev, symObjAddr: 0x1488, symBinAddr: 0x100004358, symSize: 0x2C }
  - { offsetInCU: 0xF674, offset: 0xF674, size: 0x8, addend: 0x0, symName: __ZNKSt3__111__wrap_iterIPcEdeB7v160006Ev, symObjAddr: 0x14E8, symBinAddr: 0x1000043B8, symSize: 0x18 }
  - { offsetInCU: 0xF69A, offset: 0xF69A, size: 0x8, addend: 0x0, symName: __ZNSt3__111__wrap_iterIPcEppB7v160006Ev, symObjAddr: 0x1500, symBinAddr: 0x1000043D0, symSize: 0x20 }
  - { offsetInCU: 0xF6C5, offset: 0xF6C5, size: 0x8, addend: 0x0, symName: __ZNSt3__119basic_istringstreamIcNS_11char_traitsIcEENS_9allocatorIcEEED1Ev, symObjAddr: 0x1520, symBinAddr: 0x1000043F0, symSize: 0x40 }
  - { offsetInCU: 0xF6F2, offset: 0xF6F2, size: 0x8, addend: 0x0, symName: __ZNKSt3__16vectorIhNS_9allocatorIhEEE4sizeB7v160006Ev, symObjAddr: 0x1560, symBinAddr: 0x100004430, symSize: 0x20 }
  - { offsetInCU: 0xF718, offset: 0xF718, size: 0x8, addend: 0x0, symName: __ZNSt3__16vectorIhNS_9allocatorIhEEE5beginB7v160006Ev, symObjAddr: 0x15D0, symBinAddr: 0x1000044A0, symSize: 0x30 }
  - { offsetInCU: 0xF740, offset: 0xF740, size: 0x8, addend: 0x0, symName: __ZNSt3__16vectorIhNS_9allocatorIhEEE3endB7v160006Ev, symObjAddr: 0x1600, symBinAddr: 0x1000044D0, symSize: 0x30 }
  - { offsetInCU: 0xF768, offset: 0xF768, size: 0x8, addend: 0x0, symName: __ZNSt3__16vectorIhNS_9allocatorIhEEED1B7v160006Ev, symObjAddr: 0x1630, symBinAddr: 0x100004500, symSize: 0x2C }
  - { offsetInCU: 0xF792, offset: 0xF792, size: 0x8, addend: 0x0, symName: _main, symObjAddr: 0x165C, symBinAddr: 0x10000452C, symSize: 0x21C }
  - { offsetInCU: 0xF838, offset: 0xF838, size: 0x8, addend: 0x0, symName: __ZNSt3__119basic_ostringstreamIcNS_11char_traitsIcEENS_9allocatorIcEEEC1B7v160006Ev, symObjAddr: 0x1878, symBinAddr: 0x100004748, symSize: 0xEC }
  - { offsetInCU: 0xF862, offset: 0xF862, size: 0x8, addend: 0x0, symName: __ZNSt3__113basic_ostreamIcNS_11char_traitsIcEEElsB7v160006EPFRS3_S4_E, symObjAddr: 0x19F4, symBinAddr: 0x1000048C4, symSize: 0x2C }
  - { offsetInCU: 0xF896, offset: 0xF896, size: 0x8, addend: 0x0, symName: __ZNKSt3__119basic_ostringstreamIcNS_11char_traitsIcEENS_9allocatorIcEEE3strB7v160006Ev, symObjAddr: 0x1A78, symBinAddr: 0x100004948, symSize: 0x30 }
  - { offsetInCU: 0xF8C1, offset: 0xF8C1, size: 0x8, addend: 0x0, symName: __ZNSt3__119basic_ostringstreamIcNS_11char_traitsIcEENS_9allocatorIcEEED1Ev, symObjAddr: 0x1AA8, symBinAddr: 0x100004978, symSize: 0x40 }
  - { offsetInCU: 0xF8EE, offset: 0xF8EE, size: 0x8, addend: 0x0, symName: __ZNSt9exceptionC2B7v160006Ev, symObjAddr: 0x1AE8, symBinAddr: 0x1000049B8, symSize: 0x24 }
  - { offsetInCU: 0xF918, offset: 0xF918, size: 0x8, addend: 0x0, symName: __ZNSt3__14pairIccEC2B7v160006IRcS3_LPv0EEEOT_OT0_, symObjAddr: 0x1B0C, symBinAddr: 0x1000049DC, symSize: 0x34 }
  - { offsetInCU: 0xF976, offset: 0xF976, size: 0x8, addend: 0x0, symName: __ZNKSt3__111__wrap_iterIPcE4baseB7v160006Ev, symObjAddr: 0x1B88, symBinAddr: 0x100004A58, symSize: 0x18 }
  - { offsetInCU: 0xF99C, offset: 0xF99C, size: 0x8, addend: 0x0, symName: __ZNSt3__119basic_istringstreamIcNS_11char_traitsIcEENS_9allocatorIcEEED2Ev, symObjAddr: 0x1BA0, symBinAddr: 0x100004A70, symSize: 0x64 }
  - { offsetInCU: 0xF9D6, offset: 0xF9D6, size: 0x8, addend: 0x0, symName: __ZTv0_n24_NSt3__119basic_istringstreamIcNS_11char_traitsIcEENS_9allocatorIcEEED1Ev, symObjAddr: 0x1C04, symBinAddr: 0x100004AD4, symSize: 0x28 }
  - { offsetInCU: 0xF9F2, offset: 0xF9F2, size: 0x8, addend: 0x0, symName: __ZNSt3__115basic_stringbufIcNS_11char_traitsIcEENS_9allocatorIcEEED1Ev, symObjAddr: 0x1C2C, symBinAddr: 0x100004AFC, symSize: 0x2C }
  - { offsetInCU: 0xFA1F, offset: 0xFA1F, size: 0x8, addend: 0x0, symName: __ZNSt3__115basic_stringbufIcNS_11char_traitsIcEENS_9allocatorIcEEED2Ev, symObjAddr: 0x1C58, symBinAddr: 0x100004B28, symSize: 0x48 }
  - { offsetInCU: 0xFA4C, offset: 0xFA4C, size: 0x8, addend: 0x0, symName: __ZNSt3__119basic_ostringstreamIcNS_11char_traitsIcEENS_9allocatorIcEEED2Ev, symObjAddr: 0x1CA0, symBinAddr: 0x100004B70, symSize: 0x64 }
  - { offsetInCU: 0xFA86, offset: 0xFA86, size: 0x8, addend: 0x0, symName: __ZTv0_n24_NSt3__119basic_ostringstreamIcNS_11char_traitsIcEENS_9allocatorIcEEED1Ev, symObjAddr: 0x1D04, symBinAddr: 0x100004BD4, symSize: 0x28 }
  - { offsetInCU: 0xFA9D, offset: 0xFA9D, size: 0x8, addend: 0x0, symName: __ZNSt3__112basic_stringIcNS_11char_traitsIcEENS_9allocatorIcEEEC2B7v160006Ev, symObjAddr: 0x1D2C, symBinAddr: 0x100004BFC, symSize: 0x54 }
  - { offsetInCU: 0xFACD, offset: 0xFACD, size: 0x8, addend: 0x0, symName: __ZNSt3__117__compressed_pairINS_12basic_stringIcNS_11char_traitsIcEENS_9allocatorIcEEE5__repES5_EC1B7v160006INS_18__default_init_tagESA_EEOT_OT0_, symObjAddr: 0x1D80, symBinAddr: 0x100004C50, symSize: 0x3C }
  - { offsetInCU: 0xFB25, offset: 0xFB25, size: 0x8, addend: 0x0, symName: __ZNSt3__112basic_stringIcNS_11char_traitsIcEENS_9allocatorIcEEE14__default_initB7v160006Ev, symObjAddr: 0x1DD8, symBinAddr: 0x100004CA8, symSize: 0x40 }
  - { offsetInCU: 0xFB4B, offset: 0xFB4B, size: 0x8, addend: 0x0, symName: __ZNSt3__117__compressed_pairINS_12basic_stringIcNS_11char_traitsIcEENS_9allocatorIcEEE5__repES5_EC2B7v160006INS_18__default_init_tagESA_EEOT_OT0_, symObjAddr: 0x1E18, symBinAddr: 0x100004CE8, symSize: 0x3C }
  - { offsetInCU: 0xFBA3, offset: 0xFBA3, size: 0x8, addend: 0x0, symName: __ZNSt3__122__compressed_pair_elemINS_12basic_stringIcNS_11char_traitsIcEENS_9allocatorIcEEE5__repELi0ELb0EEC2B7v160006ENS_18__default_init_tagE, symObjAddr: 0x1E54, symBinAddr: 0x100004D24, symSize: 0x14 }
  - { offsetInCU: 0xFBD7, offset: 0xFBD7, size: 0x8, addend: 0x0, symName: __ZNSt3__122__compressed_pair_elemINS_9allocatorIcEELi1ELb1EEC2B7v160006ENS_18__default_init_tagE, symObjAddr: 0x1E68, symBinAddr: 0x100004D38, symSize: 0x2C }
  - { offsetInCU: 0xFC0B, offset: 0xFC0B, size: 0x8, addend: 0x0, symName: __ZNSt3__19allocatorIcEC2B7v160006Ev, symObjAddr: 0x1E94, symBinAddr: 0x100004D64, symSize: 0x2C }
  - { offsetInCU: 0xFC35, offset: 0xFC35, size: 0x8, addend: 0x0, symName: __ZNSt3__116__non_trivial_ifILb1ENS_9allocatorIcEEEC2B7v160006Ev, symObjAddr: 0x1EC0, symBinAddr: 0x100004D90, symSize: 0x14 }
  - { offsetInCU: 0xFC5F, offset: 0xFC5F, size: 0x8, addend: 0x0, symName: __ZNSt3__117__compressed_pairINS_12basic_stringIcNS_11char_traitsIcEENS_9allocatorIcEEE5__repES5_E5firstB7v160006Ev, symObjAddr: 0x1ED4, symBinAddr: 0x100004DA4, symSize: 0x24 }
  - { offsetInCU: 0xFC85, offset: 0xFC85, size: 0x8, addend: 0x0, symName: __ZNSt3__122__compressed_pair_elemINS_12basic_stringIcNS_11char_traitsIcEENS_9allocatorIcEEE5__repELi0ELb0EE5__getB7v160006Ev, symObjAddr: 0x1EF8, symBinAddr: 0x100004DC8, symSize: 0x14 }
  - { offsetInCU: 0xFCAB, offset: 0xFCAB, size: 0x8, addend: 0x0, symName: __ZNSt3__16vectorINS_4pairIccEENS_9allocatorIS2_EEEC2B7v160006Ev, symObjAddr: 0x1F0C, symBinAddr: 0x100004DDC, symSize: 0x58 }
  - { offsetInCU: 0xFCDB, offset: 0xFCDB, size: 0x8, addend: 0x0, symName: __ZNSt3__117__compressed_pairIPNS_4pairIccEENS_9allocatorIS2_EEEC1B7v160006IDnNS_18__default_init_tagEEEOT_OT0_, symObjAddr: 0x1F64, symBinAddr: 0x100004E34, symSize: 0x3C }
  - { offsetInCU: 0xFD33, offset: 0xFD33, size: 0x8, addend: 0x0, symName: __ZNSt3__117__compressed_pairIPNS_4pairIccEENS_9allocatorIS2_EEEC2B7v160006IDnNS_18__default_init_tagEEEOT_OT0_, symObjAddr: 0x1FB0, symBinAddr: 0x100004E80, symSize: 0x40 }
  - { offsetInCU: 0xFD8B, offset: 0xFD8B, size: 0x8, addend: 0x0, symName: __ZNSt3__122__compressed_pair_elemIPNS_4pairIccEELi0ELb0EEC2B7v160006IDnvEEOT_, symObjAddr: 0x1FF0, symBinAddr: 0x100004EC0, symSize: 0x1C }
  - { offsetInCU: 0xFDCD, offset: 0xFDCD, size: 0x8, addend: 0x0, symName: __ZNSt3__122__compressed_pair_elemINS_9allocatorINS_4pairIccEEEELi1ELb1EEC2B7v160006ENS_18__default_init_tagE, symObjAddr: 0x200C, symBinAddr: 0x100004EDC, symSize: 0x2C }
  - { offsetInCU: 0xFE01, offset: 0xFE01, size: 0x8, addend: 0x0, symName: __ZNSt3__19allocatorINS_4pairIccEEEC2B7v160006Ev, symObjAddr: 0x2038, symBinAddr: 0x100004F08, symSize: 0x2C }
  - { offsetInCU: 0xFE2B, offset: 0xFE2B, size: 0x8, addend: 0x0, symName: __ZNSt3__116__non_trivial_ifILb1ENS_9allocatorINS_4pairIccEEEEEC2B7v160006Ev, symObjAddr: 0x2064, symBinAddr: 0x100004F34, symSize: 0x14 }
  - { offsetInCU: 0xFE55, offset: 0xFE55, size: 0x8, addend: 0x0, symName: __ZNSt3__16vectorINS_4pairIccEENS_9allocatorIS2_EEED2B7v160006Ev, symObjAddr: 0x2078, symBinAddr: 0x100004F48, symSize: 0x44 }
  - { offsetInCU: 0xFE7F, offset: 0xFE7F, size: 0x8, addend: 0x0, symName: __ZNSt3__16vectorINS_4pairIccEENS_9allocatorIS2_EEE16__destroy_vectorC1ERS5_, symObjAddr: 0x20BC, symBinAddr: 0x100004F8C, symSize: 0x34 }
  - { offsetInCU: 0xFEB8, offset: 0xFEB8, size: 0x8, addend: 0x0, symName: __ZNSt3__16vectorINS_4pairIccEENS_9allocatorIS2_EEE16__destroy_vectorclB7v160006Ev, symObjAddr: 0x20F0, symBinAddr: 0x100004FC0, symSize: 0x9C }
  - { offsetInCU: 0xFEDE, offset: 0xFEDE, size: 0x8, addend: 0x0, symName: __ZNSt3__16vectorINS_4pairIccEENS_9allocatorIS2_EEE16__destroy_vectorC2ERS5_, symObjAddr: 0x218C, symBinAddr: 0x10000505C, symSize: 0x20 }
  - { offsetInCU: 0xFF17, offset: 0xFF17, size: 0x8, addend: 0x0, symName: __ZNKSt3__16vectorINS_4pairIccEENS_9allocatorIS2_EEE17__annotate_deleteB7v160006Ev, symObjAddr: 0x21AC, symBinAddr: 0x10000507C, symSize: 0xB8 }
  - { offsetInCU: 0xFF3D, offset: 0xFF3D, size: 0x8, addend: 0x0, symName: __ZNSt3__16vectorINS_4pairIccEENS_9allocatorIS2_EEE7__clearB7v160006Ev, symObjAddr: 0x2274, symBinAddr: 0x100005144, symSize: 0x28 }
  - { offsetInCU: 0xFF63, offset: 0xFF63, size: 0x8, addend: 0x0, symName: __ZNSt3__116allocator_traitsINS_9allocatorINS_4pairIccEEEEE10deallocateB7v160006ERS4_PS3_m, symObjAddr: 0x229C, symBinAddr: 0x10000516C, symSize: 0x34 }
  - { offsetInCU: 0xFFA5, offset: 0xFFA5, size: 0x8, addend: 0x0, symName: __ZNSt3__16vectorINS_4pairIccEENS_9allocatorIS2_EEE7__allocB7v160006Ev, symObjAddr: 0x22D0, symBinAddr: 0x1000051A0, symSize: 0x28 }
  - { offsetInCU: 0xFFCB, offset: 0xFFCB, size: 0x8, addend: 0x0, symName: __ZNKSt3__16vectorINS_4pairIccEENS_9allocatorIS2_EEE8capacityB7v160006Ev, symObjAddr: 0x22F8, symBinAddr: 0x1000051C8, symSize: 0x40 }
  - { offsetInCU: 0xFFF1, offset: 0xFFF1, size: 0x8, addend: 0x0, symName: __ZNKSt3__16vectorINS_4pairIccEENS_9allocatorIS2_EEE31__annotate_contiguous_containerB7v160006EPKvS7_S7_S7_, symObjAddr: 0x2338, symBinAddr: 0x100005208, symSize: 0x20 }
  - { offsetInCU: 0x10043, offset: 0x10043, size: 0x8, addend: 0x0, symName: __ZNKSt3__16vectorINS_4pairIccEENS_9allocatorIS2_EEE4dataB7v160006Ev, symObjAddr: 0x2358, symBinAddr: 0x100005228, symSize: 0x28 }
  - { offsetInCU: 0x10069, offset: 0x10069, size: 0x8, addend: 0x0, symName: __ZNSt3__16vectorINS_4pairIccEENS_9allocatorIS2_EEE22__base_destruct_at_endB7v160006EPS2_, symObjAddr: 0x2394, symBinAddr: 0x100005264, symSize: 0x8C }
  - { offsetInCU: 0x100AD, offset: 0x100AD, size: 0x8, addend: 0x0, symName: __ZNSt3__116allocator_traitsINS_9allocatorINS_4pairIccEEEEE7destroyB7v160006IS3_vEEvRS4_PT_, symObjAddr: 0x2420, symBinAddr: 0x1000052F0, symSize: 0x2C }
  - { offsetInCU: 0x100EA, offset: 0x100EA, size: 0x8, addend: 0x0, symName: __ZNSt3__19allocatorINS_4pairIccEEE7destroyB7v160006EPS2_, symObjAddr: 0x244C, symBinAddr: 0x10000531C, symSize: 0x14 }
  - { offsetInCU: 0x1011E, offset: 0x1011E, size: 0x8, addend: 0x0, symName: __ZNSt3__19allocatorINS_4pairIccEEE10deallocateB7v160006EPS2_m, symObjAddr: 0x2460, symBinAddr: 0x100005330, symSize: 0x40 }
  - { offsetInCU: 0x10160, offset: 0x10160, size: 0x8, addend: 0x0, symName: __ZNSt3__117__compressed_pairIPNS_4pairIccEENS_9allocatorIS2_EEE6secondB7v160006Ev, symObjAddr: 0x25C8, symBinAddr: 0x100005498, symSize: 0x24 }
  - { offsetInCU: 0x10186, offset: 0x10186, size: 0x8, addend: 0x0, symName: __ZNSt3__122__compressed_pair_elemINS_9allocatorINS_4pairIccEEEELi1ELb1EE5__getB7v160006Ev, symObjAddr: 0x25EC, symBinAddr: 0x1000054BC, symSize: 0x14 }
  - { offsetInCU: 0x101AC, offset: 0x101AC, size: 0x8, addend: 0x0, symName: __ZNKSt3__16vectorINS_4pairIccEENS_9allocatorIS2_EEE9__end_capB7v160006Ev, symObjAddr: 0x2600, symBinAddr: 0x1000054D0, symSize: 0x28 }
  - { offsetInCU: 0x101D2, offset: 0x101D2, size: 0x8, addend: 0x0, symName: __ZNKSt3__117__compressed_pairIPNS_4pairIccEENS_9allocatorIS2_EEE5firstB7v160006Ev, symObjAddr: 0x2628, symBinAddr: 0x1000054F8, symSize: 0x24 }
  - { offsetInCU: 0x101F8, offset: 0x101F8, size: 0x8, addend: 0x0, symName: __ZNKSt3__122__compressed_pair_elemIPNS_4pairIccEELi0ELb0EE5__getB7v160006Ev, symObjAddr: 0x264C, symBinAddr: 0x10000551C, symSize: 0x14 }
  - { offsetInCU: 0x1021E, offset: 0x1021E, size: 0x8, addend: 0x0, symName: __ZNSt3__111char_traitsIcE6lengthEPKc, symObjAddr: 0x284C, symBinAddr: 0x10000571C, symSize: 0x34 }
  - { offsetInCU: 0x1025F, offset: 0x1025F, size: 0x8, addend: 0x0, symName: __ZNKSt3__113basic_ostreamIcNS_11char_traitsIcEEE6sentrycvbB7v160006Ev, symObjAddr: 0x2880, symBinAddr: 0x100005750, symSize: 0x1C }
  - { offsetInCU: 0x10285, offset: 0x10285, size: 0x8, addend: 0x0, symName: __ZNSt3__119ostreambuf_iteratorIcNS_11char_traitsIcEEEC1B7v160006ERNS_13basic_ostreamIcS2_EE, symObjAddr: 0x2ADC, symBinAddr: 0x1000059AC, symSize: 0x34 }
  - { offsetInCU: 0x102BD, offset: 0x102BD, size: 0x8, addend: 0x0, symName: __ZNKSt3__18ios_base5flagsB7v160006Ev, symObjAddr: 0x2B10, symBinAddr: 0x1000059E0, symSize: 0x18 }
  - { offsetInCU: 0x102E5, offset: 0x102E5, size: 0x8, addend: 0x0, symName: __ZNKSt3__19basic_iosIcNS_11char_traitsIcEEE4fillB7v160006Ev, symObjAddr: 0x2B28, symBinAddr: 0x1000059F8, symSize: 0x64 }
  - { offsetInCU: 0x1030D, offset: 0x1030D, size: 0x8, addend: 0x0, symName: __ZNKSt3__119ostreambuf_iteratorIcNS_11char_traitsIcEEE6failedB7v160006Ev, symObjAddr: 0x2B8C, symBinAddr: 0x100005A5C, symSize: 0x24 }
  - { offsetInCU: 0x10333, offset: 0x10333, size: 0x8, addend: 0x0, symName: __ZNSt3__19basic_iosIcNS_11char_traitsIcEEE8setstateB7v160006Ej, symObjAddr: 0x2BB0, symBinAddr: 0x100005A80, symSize: 0x2C }
  - { offsetInCU: 0x10368, offset: 0x10368, size: 0x8, addend: 0x0, symName: __ZNKSt3__18ios_base5widthB7v160006Ev, symObjAddr: 0x2BDC, symBinAddr: 0x100005AAC, symSize: 0x18 }
  - { offsetInCU: 0x10390, offset: 0x10390, size: 0x8, addend: 0x0, symName: __ZNSt3__115basic_streambufIcNS_11char_traitsIcEEE5sputnB7v160006EPKcl, symObjAddr: 0x2BF4, symBinAddr: 0x100005AC4, symSize: 0x3C }
  - { offsetInCU: 0x103D2, offset: 0x103D2, size: 0x8, addend: 0x0, symName: __ZNSt3__112basic_stringIcNS_11char_traitsIcEENS_9allocatorIcEEEC1B7v160006Emc, symObjAddr: 0x2C30, symBinAddr: 0x100005B00, symSize: 0x3C }
  - { offsetInCU: 0x1041A, offset: 0x1041A, size: 0x8, addend: 0x0, symName: __ZNSt3__112basic_stringIcNS_11char_traitsIcEENS_9allocatorIcEEE4dataB7v160006Ev, symObjAddr: 0x2C6C, symBinAddr: 0x100005B3C, symSize: 0x28 }
  - { offsetInCU: 0x10440, offset: 0x10440, size: 0x8, addend: 0x0, symName: __ZNSt3__18ios_base5widthB7v160006El, symObjAddr: 0x2C94, symBinAddr: 0x100005B64, symSize: 0x2C }
  - { offsetInCU: 0x10486, offset: 0x10486, size: 0x8, addend: 0x0, symName: __ZNSt3__112basic_stringIcNS_11char_traitsIcEENS_9allocatorIcEEEC2B7v160006Emc, symObjAddr: 0x2CC0, symBinAddr: 0x100005B90, symSize: 0x54 }
  - { offsetInCU: 0x104CE, offset: 0x104CE, size: 0x8, addend: 0x0, symName: __ZNSt3__112basic_stringIcNS_11char_traitsIcEENS_9allocatorIcEEE13__get_pointerB7v160006Ev, symObjAddr: 0x2D28, symBinAddr: 0x100005BF8, symSize: 0x54 }
  - { offsetInCU: 0x104F4, offset: 0x104F4, size: 0x8, addend: 0x0, symName: __ZNKSt3__112basic_stringIcNS_11char_traitsIcEENS_9allocatorIcEEE9__is_longB7v160006Ev, symObjAddr: 0x2D7C, symBinAddr: 0x100005C4C, symSize: 0x38 }
  - { offsetInCU: 0x1051A, offset: 0x1051A, size: 0x8, addend: 0x0, symName: __ZNSt3__112basic_stringIcNS_11char_traitsIcEENS_9allocatorIcEEE18__get_long_pointerB7v160006Ev, symObjAddr: 0x2DB4, symBinAddr: 0x100005C84, symSize: 0x28 }
  - { offsetInCU: 0x10540, offset: 0x10540, size: 0x8, addend: 0x0, symName: __ZNSt3__112basic_stringIcNS_11char_traitsIcEENS_9allocatorIcEEE19__get_short_pointerB7v160006Ev, symObjAddr: 0x2DDC, symBinAddr: 0x100005CAC, symSize: 0x28 }
  - { offsetInCU: 0x10566, offset: 0x10566, size: 0x8, addend: 0x0, symName: __ZNKSt3__117__compressed_pairINS_12basic_stringIcNS_11char_traitsIcEENS_9allocatorIcEEE5__repES5_E5firstB7v160006Ev, symObjAddr: 0x2E04, symBinAddr: 0x100005CD4, symSize: 0x24 }
  - { offsetInCU: 0x1058C, offset: 0x1058C, size: 0x8, addend: 0x0, symName: __ZNKSt3__122__compressed_pair_elemINS_12basic_stringIcNS_11char_traitsIcEENS_9allocatorIcEEE5__repELi0ELb0EE5__getB7v160006Ev, symObjAddr: 0x2E28, symBinAddr: 0x100005CF8, symSize: 0x14 }
  - { offsetInCU: 0x105B2, offset: 0x105B2, size: 0x8, addend: 0x0, symName: __ZNSt3__114pointer_traitsIPcE10pointer_toB7v160006ERc, symObjAddr: 0x2E3C, symBinAddr: 0x100005D0C, symSize: 0x14 }
  - { offsetInCU: 0x105D5, offset: 0x105D5, size: 0x8, addend: 0x0, symName: __ZNSt3__119ostreambuf_iteratorIcNS_11char_traitsIcEEEC2B7v160006ERNS_13basic_ostreamIcS2_EE, symObjAddr: 0x2E50, symBinAddr: 0x100005D20, symSize: 0x54 }
  - { offsetInCU: 0x1060D, offset: 0x1060D, size: 0x8, addend: 0x0, symName: __ZNKSt3__19basic_iosIcNS_11char_traitsIcEEE5rdbufB7v160006Ev, symObjAddr: 0x2EA4, symBinAddr: 0x100005D74, symSize: 0x24 }
  - { offsetInCU: 0x10635, offset: 0x10635, size: 0x8, addend: 0x0, symName: __ZNKSt3__18ios_base5rdbufB7v160006Ev, symObjAddr: 0x2EC8, symBinAddr: 0x100005D98, symSize: 0x18 }
  - { offsetInCU: 0x1065B, offset: 0x1065B, size: 0x8, addend: 0x0, symName: __ZNSt3__111char_traitsIcE11eq_int_typeEii, symObjAddr: 0x2EE0, symBinAddr: 0x100005DB0, symSize: 0x28 }
  - { offsetInCU: 0x1068C, offset: 0x1068C, size: 0x8, addend: 0x0, symName: __ZNSt3__111char_traitsIcE3eofEv, symObjAddr: 0x2F08, symBinAddr: 0x100005DD8, symSize: 0x8 }
  - { offsetInCU: 0x106A0, offset: 0x106A0, size: 0x8, addend: 0x0, symName: __ZNKSt3__19basic_iosIcNS_11char_traitsIcEEE5widenB7v160006Ec, symObjAddr: 0x2F10, symBinAddr: 0x100005DE0, symSize: 0x84 }
  - { offsetInCU: 0x10704, offset: 0x10704, size: 0x8, addend: 0x0, symName: __ZNKSt3__15ctypeIcE5widenB7v160006Ec, symObjAddr: 0x2FC0, symBinAddr: 0x100005E90, symSize: 0x38 }
  - { offsetInCU: 0x10739, offset: 0x10739, size: 0x8, addend: 0x0, symName: __ZNSt3__18ios_base8setstateB7v160006Ej, symObjAddr: 0x2FF8, symBinAddr: 0x100005EC8, symSize: 0x34 }
  - { offsetInCU: 0x10770, offset: 0x10770, size: 0x8, addend: 0x0, symName: __ZNKSt3__112basic_stringIcNS_11char_traitsIcEENS_9allocatorIcEEE4dataB7v160006Ev, symObjAddr: 0x3050, symBinAddr: 0x100005F20, symSize: 0x28 }
  - { offsetInCU: 0x10796, offset: 0x10796, size: 0x8, addend: 0x0, symName: __ZNKSt3__112basic_stringIcNS_11char_traitsIcEENS_9allocatorIcEEE4sizeB7v160006Ev, symObjAddr: 0x3078, symBinAddr: 0x100005F48, symSize: 0x54 }
  - { offsetInCU: 0x107BC, offset: 0x107BC, size: 0x8, addend: 0x0, symName: __ZNKSt3__112basic_stringIcNS_11char_traitsIcEENS_9allocatorIcEEE13__get_pointerB7v160006Ev, symObjAddr: 0x30E0, symBinAddr: 0x100005FB0, symSize: 0x54 }
  - { offsetInCU: 0x107E2, offset: 0x107E2, size: 0x8, addend: 0x0, symName: __ZNKSt3__112basic_stringIcNS_11char_traitsIcEENS_9allocatorIcEEE18__get_long_pointerB7v160006Ev, symObjAddr: 0x3134, symBinAddr: 0x100006004, symSize: 0x28 }
  - { offsetInCU: 0x10808, offset: 0x10808, size: 0x8, addend: 0x0, symName: __ZNKSt3__112basic_stringIcNS_11char_traitsIcEENS_9allocatorIcEEE19__get_short_pointerB7v160006Ev, symObjAddr: 0x315C, symBinAddr: 0x10000602C, symSize: 0x28 }
  - { offsetInCU: 0x1082E, offset: 0x1082E, size: 0x8, addend: 0x0, symName: __ZNSt3__114pointer_traitsIPKcE10pointer_toB7v160006ERS1_, symObjAddr: 0x3184, symBinAddr: 0x100006054, symSize: 0x14 }
  - { offsetInCU: 0x10851, offset: 0x10851, size: 0x8, addend: 0x0, symName: __ZNKSt3__112basic_stringIcNS_11char_traitsIcEENS_9allocatorIcEEE15__get_long_sizeB7v160006Ev, symObjAddr: 0x3198, symBinAddr: 0x100006068, symSize: 0x28 }
  - { offsetInCU: 0x10877, offset: 0x10877, size: 0x8, addend: 0x0, symName: __ZNKSt3__112basic_stringIcNS_11char_traitsIcEENS_9allocatorIcEEE16__get_short_sizeB7v160006Ev, symObjAddr: 0x31C0, symBinAddr: 0x100006090, symSize: 0x34 }
  - { offsetInCU: 0x1089D, offset: 0x1089D, size: 0x8, addend: 0x0, symName: __ZNKSt3__19basic_iosIcNS_11char_traitsIcEEE4failB7v160006Ev, symObjAddr: 0x31F4, symBinAddr: 0x1000060C4, symSize: 0x28 }
  - { offsetInCU: 0x108C3, offset: 0x108C3, size: 0x8, addend: 0x0, symName: __ZNKSt3__18ios_base4failB7v160006Ev, symObjAddr: 0x321C, symBinAddr: 0x1000060EC, symSize: 0x28 }
  - { offsetInCU: 0x10909, offset: 0x10909, size: 0x8, addend: 0x0, symName: __ZNKSt3__113basic_istreamIcNS_11char_traitsIcEEE6sentrycvbB7v160006Ev, symObjAddr: 0x3244, symBinAddr: 0x100006114, symSize: 0x1C }
  - { offsetInCU: 0x1092F, offset: 0x1092F, size: 0x8, addend: 0x0, symName: __ZNSt3__112basic_stringIcNS_11char_traitsIcEENS_9allocatorIcEEE5clearB7v160006Ev, symObjAddr: 0x3260, symBinAddr: 0x100006130, symSize: 0x88 }
  - { offsetInCU: 0x10957, offset: 0x10957, size: 0x8, addend: 0x0, symName: __ZNKSt3__112basic_stringIcNS_11char_traitsIcEENS_9allocatorIcEEE8max_sizeB7v160006Ev, symObjAddr: 0x32E8, symBinAddr: 0x1000061B8, symSize: 0xAC }
  - { offsetInCU: 0x109A9, offset: 0x109A9, size: 0x8, addend: 0x0, symName: __ZNSt3__114numeric_limitsIlE3maxB7v160006Ev, symObjAddr: 0x3394, symBinAddr: 0x100006264, symSize: 0x14 }
  - { offsetInCU: 0x109BD, offset: 0x109BD, size: 0x8, addend: 0x0, symName: __ZNSt3__115basic_streambufIcNS_11char_traitsIcEEE5sgetcB7v160006Ev, symObjAddr: 0x33A8, symBinAddr: 0x100006278, symSize: 0x70 }
  - { offsetInCU: 0x109E3, offset: 0x109E3, size: 0x8, addend: 0x0, symName: __ZNSt3__111char_traitsIcE12to_char_typeEi, symObjAddr: 0x3418, symBinAddr: 0x1000062E8, symSize: 0x18 }
  - { offsetInCU: 0x10A06, offset: 0x10A06, size: 0x8, addend: 0x0, symName: __ZNKSt3__15ctypeIcE2isB7v160006Ejc, symObjAddr: 0x3430, symBinAddr: 0x100006300, symSize: 0x7C }
  - { offsetInCU: 0x10A4A, offset: 0x10A4A, size: 0x8, addend: 0x0, symName: __ZNSt3__115basic_streambufIcNS_11char_traitsIcEEE6sbumpcB7v160006Ev, symObjAddr: 0x34AC, symBinAddr: 0x10000637C, symSize: 0x78 }
  - { offsetInCU: 0x10A70, offset: 0x10A70, size: 0x8, addend: 0x0, symName: __ZNSt3__18ios_base18__setstate_nothrowB7v160006Ej, symObjAddr: 0x3524, symBinAddr: 0x1000063F4, symSize: 0x64 }
  - { offsetInCU: 0x10AA5, offset: 0x10AA5, size: 0x8, addend: 0x0, symName: __ZNKSt3__19basic_iosIcNS_11char_traitsIcEEE10exceptionsB7v160006Ev, symObjAddr: 0x3588, symBinAddr: 0x100006458, symSize: 0x24 }
  - { offsetInCU: 0x10ACB, offset: 0x10ACB, size: 0x8, addend: 0x0, symName: __ZNSt3__111char_traitsIcE6assignERcRKc, symObjAddr: 0x35BC, symBinAddr: 0x10000648C, symSize: 0x24 }
  - { offsetInCU: 0x10AFC, offset: 0x10AFC, size: 0x8, addend: 0x0, symName: __ZNSt3__112basic_stringIcNS_11char_traitsIcEENS_9allocatorIcEEE15__set_long_sizeB7v160006Em, symObjAddr: 0x35E0, symBinAddr: 0x1000064B0, symSize: 0x38 }
  - { offsetInCU: 0x10B31, offset: 0x10B31, size: 0x8, addend: 0x0, symName: __ZNSt3__112basic_stringIcNS_11char_traitsIcEENS_9allocatorIcEEE16__set_short_sizeB7v160006Em, symObjAddr: 0x3618, symBinAddr: 0x1000064E8, symSize: 0x78 }
  - { offsetInCU: 0x10B70, offset: 0x10B70, size: 0x8, addend: 0x0, symName: __ZNSt3__116allocator_traitsINS_9allocatorIcEEE8max_sizeB7v160006IS2_vEEmRKS2_, symObjAddr: 0x3690, symBinAddr: 0x100006560, symSize: 0x24 }
  - { offsetInCU: 0x10B9E, offset: 0x10B9E, size: 0x8, addend: 0x0, symName: __ZNKSt3__112basic_stringIcNS_11char_traitsIcEENS_9allocatorIcEEE7__allocB7v160006Ev, symObjAddr: 0x36B4, symBinAddr: 0x100006584, symSize: 0x24 }
  - { offsetInCU: 0x10BC4, offset: 0x10BC4, size: 0x8, addend: 0x0, symName: __ZNSt3__114numeric_limitsImE3maxB7v160006Ev, symObjAddr: 0x36D8, symBinAddr: 0x1000065A8, symSize: 0x14 }
  - { offsetInCU: 0x10BD8, offset: 0x10BD8, size: 0x8, addend: 0x0, symName: __ZNKSt3__19allocatorIcE8max_sizeB7v160006Ev, symObjAddr: 0x36EC, symBinAddr: 0x1000065BC, symSize: 0x14 }
  - { offsetInCU: 0x10BFE, offset: 0x10BFE, size: 0x8, addend: 0x0, symName: __ZNKSt3__117__compressed_pairINS_12basic_stringIcNS_11char_traitsIcEENS_9allocatorIcEEE5__repES5_E6secondB7v160006Ev, symObjAddr: 0x3700, symBinAddr: 0x1000065D0, symSize: 0x24 }
  - { offsetInCU: 0x10C24, offset: 0x10C24, size: 0x8, addend: 0x0, symName: __ZNKSt3__122__compressed_pair_elemINS_9allocatorIcEELi1ELb1EE5__getB7v160006Ev, symObjAddr: 0x3724, symBinAddr: 0x1000065F4, symSize: 0x14 }
  - { offsetInCU: 0x10C4A, offset: 0x10C4A, size: 0x8, addend: 0x0, symName: __ZNSt3__123__libcpp_numeric_limitsImLb1EE3maxB7v160006Ev, symObjAddr: 0x3738, symBinAddr: 0x100006608, symSize: 0x8 }
  - { offsetInCU: 0x10C5E, offset: 0x10C5E, size: 0x8, addend: 0x0, symName: __ZNSt3__123__libcpp_numeric_limitsIlLb1EE3maxB7v160006Ev, symObjAddr: 0x3740, symBinAddr: 0x100006610, symSize: 0x8 }
  - { offsetInCU: 0x10C72, offset: 0x10C72, size: 0x8, addend: 0x0, symName: __ZNSt3__111char_traitsIcE11to_int_typeEc, symObjAddr: 0x3748, symBinAddr: 0x100006618, symSize: 0x14 }
  - { offsetInCU: 0x10C94, offset: 0x10C94, size: 0x8, addend: 0x0, symName: __Z7isasciii, symObjAddr: 0x375C, symBinAddr: 0x10000662C, symSize: 0x24 }
  - { offsetInCU: 0x10CC1, offset: 0x10CC1, size: 0x8, addend: 0x0, symName: __ZNKSt3__18ios_base10exceptionsB7v160006Ev, symObjAddr: 0x3780, symBinAddr: 0x100006650, symSize: 0x18 }
  - { offsetInCU: 0x10CE9, offset: 0x10CE9, size: 0x8, addend: 0x0, symName: __ZNSt3__16vectorINS_4pairIccEENS_9allocatorIS2_EEE9__end_capB7v160006Ev, symObjAddr: 0x3798, symBinAddr: 0x100006668, symSize: 0x28 }
  - { offsetInCU: 0x10D0F, offset: 0x10D0F, size: 0x8, addend: 0x0, symName: __ZNSt3__16vectorINS_4pairIccEENS_9allocatorIS2_EEE22__construct_one_at_endB7v160006IJS2_EEEvDpOT_, symObjAddr: 0x37C0, symBinAddr: 0x100006690, symSize: 0x90 }
  - { offsetInCU: 0x10D5E, offset: 0x10D5E, size: 0x8, addend: 0x0, symName: __ZNSt3__16vectorINS_4pairIccEENS_9allocatorIS2_EEE21__push_back_slow_pathIS2_EEvOT_, symObjAddr: 0x3850, symBinAddr: 0x100006720, symSize: 0xD8 }
  - { offsetInCU: 0x10DBC, offset: 0x10DBC, size: 0x8, addend: 0x0, symName: __ZNSt3__117__compressed_pairIPNS_4pairIccEENS_9allocatorIS2_EEE5firstB7v160006Ev, symObjAddr: 0x3928, symBinAddr: 0x1000067F8, symSize: 0x24 }
  - { offsetInCU: 0x10DE2, offset: 0x10DE2, size: 0x8, addend: 0x0, symName: __ZNSt3__122__compressed_pair_elemIPNS_4pairIccEELi0ELb0EE5__getB7v160006Ev, symObjAddr: 0x394C, symBinAddr: 0x10000681C, symSize: 0x14 }
  - { offsetInCU: 0x10E21, offset: 0x10E21, size: 0x8, addend: 0x0, symName: __ZNSt3__16vectorINS_4pairIccEENS_9allocatorIS2_EEE21_ConstructTransactionC1B7v160006ERS5_m, symObjAddr: 0x3960, symBinAddr: 0x100006830, symSize: 0x3C }
  - { offsetInCU: 0x10E69, offset: 0x10E69, size: 0x8, addend: 0x0, symName: __ZNSt3__116allocator_traitsINS_9allocatorINS_4pairIccEEEEE9constructB7v160006IS3_JS3_EvEEvRS4_PT_DpOT0_, symObjAddr: 0x399C, symBinAddr: 0x10000686C, symSize: 0x34 }
  - { offsetInCU: 0x10EC0, offset: 0x10EC0, size: 0x8, addend: 0x0, symName: __ZNSt3__16vectorINS_4pairIccEENS_9allocatorIS2_EEE21_ConstructTransactionD1B7v160006Ev, symObjAddr: 0x39D0, symBinAddr: 0x1000068A0, symSize: 0x2C }
  - { offsetInCU: 0x10EEA, offset: 0x10EEA, size: 0x8, addend: 0x0, symName: __ZNSt3__16vectorINS_4pairIccEENS_9allocatorIS2_EEE21_ConstructTransactionC2B7v160006ERS5_m, symObjAddr: 0x39FC, symBinAddr: 0x1000068CC, symSize: 0x44 }
  - { offsetInCU: 0x10F32, offset: 0x10F32, size: 0x8, addend: 0x0, symName: __ZNSt3__19allocatorINS_4pairIccEEE9constructB7v160006IS2_JS2_EEEvPT_DpOT0_, symObjAddr: 0x3A40, symBinAddr: 0x100006910, symSize: 0x28 }
  - { offsetInCU: 0x10F88, offset: 0x10F88, size: 0x8, addend: 0x0, symName: __ZNSt3__16vectorINS_4pairIccEENS_9allocatorIS2_EEE21_ConstructTransactionD2B7v160006Ev, symObjAddr: 0x3A68, symBinAddr: 0x100006938, symSize: 0x20 }
  - { offsetInCU: 0x10FB2, offset: 0x10FB2, size: 0x8, addend: 0x0, symName: __ZNKSt3__16vectorINS_4pairIccEENS_9allocatorIS2_EEE11__recommendB7v160006Em, symObjAddr: 0x3A88, symBinAddr: 0x100006958, symSize: 0xB4 }
  - { offsetInCU: 0x11007, offset: 0x11007, size: 0x8, addend: 0x0, symName: __ZNSt3__114__split_bufferINS_4pairIccEERNS_9allocatorIS2_EEEC1EmmS5_, symObjAddr: 0x3B3C, symBinAddr: 0x100006A0C, symSize: 0x44 }
  - { offsetInCU: 0x1105D, offset: 0x1105D, size: 0x8, addend: 0x0, symName: __ZNSt3__114__split_bufferINS_4pairIccEERNS_9allocatorIS2_EEED1Ev, symObjAddr: 0x3C98, symBinAddr: 0x100006B68, symSize: 0x2C }
  - { offsetInCU: 0x11089, offset: 0x11089, size: 0x8, addend: 0x0, symName: __ZNKSt3__16vectorINS_4pairIccEENS_9allocatorIS2_EEE8max_sizeEv, symObjAddr: 0x3CC4, symBinAddr: 0x100006B94, symSize: 0x60 }
  - { offsetInCU: 0x110B1, offset: 0x110B1, size: 0x8, addend: 0x0, symName: __ZNKSt3__16vectorINS_4pairIccEENS_9allocatorIS2_EEE20__throw_length_errorB7v160006Ev, symObjAddr: 0x3D24, symBinAddr: 0x100006BF4, symSize: 0x1C }
  - { offsetInCU: 0x110E1, offset: 0x110E1, size: 0x8, addend: 0x0, symName: __ZNSt3__116allocator_traitsINS_9allocatorINS_4pairIccEEEEE8max_sizeB7v160006IS4_vEEmRKS4_, symObjAddr: 0x3D98, symBinAddr: 0x100006C68, symSize: 0x24 }
  - { offsetInCU: 0x1110F, offset: 0x1110F, size: 0x8, addend: 0x0, symName: __ZNKSt3__16vectorINS_4pairIccEENS_9allocatorIS2_EEE7__allocB7v160006Ev, symObjAddr: 0x3DBC, symBinAddr: 0x100006C8C, symSize: 0x28 }
  - { offsetInCU: 0x11149, offset: 0x11149, size: 0x8, addend: 0x0, symName: __ZNKSt3__16__lessImmEclB7v160006ERKmS3_, symObjAddr: 0x3E38, symBinAddr: 0x100006D08, symSize: 0x34 }
  - { offsetInCU: 0x1118B, offset: 0x1118B, size: 0x8, addend: 0x0, symName: __ZNKSt3__19allocatorINS_4pairIccEEE8max_sizeB7v160006Ev, symObjAddr: 0x3E6C, symBinAddr: 0x100006D3C, symSize: 0x14 }
  - { offsetInCU: 0x111B1, offset: 0x111B1, size: 0x8, addend: 0x0, symName: __ZNKSt3__117__compressed_pairIPNS_4pairIccEENS_9allocatorIS2_EEE6secondB7v160006Ev, symObjAddr: 0x3E80, symBinAddr: 0x100006D50, symSize: 0x24 }
  - { offsetInCU: 0x111D7, offset: 0x111D7, size: 0x8, addend: 0x0, symName: __ZNKSt3__122__compressed_pair_elemINS_9allocatorINS_4pairIccEEEELi1ELb1EE5__getB7v160006Ev, symObjAddr: 0x3EA4, symBinAddr: 0x100006D74, symSize: 0x14 }
  - { offsetInCU: 0x111FD, offset: 0x111FD, size: 0x8, addend: 0x0, symName: __ZNSt12length_errorC1B7v160006EPKc, symObjAddr: 0x3F1C, symBinAddr: 0x100006DEC, symSize: 0x34 }
  - { offsetInCU: 0x11235, offset: 0x11235, size: 0x8, addend: 0x0, symName: __ZNSt12length_errorC2B7v160006EPKc, symObjAddr: 0x3F50, symBinAddr: 0x100006E20, symSize: 0x4C }
  - { offsetInCU: 0x1126D, offset: 0x1126D, size: 0x8, addend: 0x0, symName: __ZNSt3__114__split_bufferINS_4pairIccEERNS_9allocatorIS2_EEEC2EmmS5_, symObjAddr: 0x3FF0, symBinAddr: 0x100006EC0, symSize: 0xD4 }
  - { offsetInCU: 0x112E0, offset: 0x112E0, size: 0x8, addend: 0x0, symName: __ZNSt3__117__compressed_pairIPNS_4pairIccEERNS_9allocatorIS2_EEEC1B7v160006IDnS6_EEOT_OT0_, symObjAddr: 0x40C4, symBinAddr: 0x100006F94, symSize: 0x3C }
  - { offsetInCU: 0x11338, offset: 0x11338, size: 0x8, addend: 0x0, symName: __ZNSt3__114__split_bufferINS_4pairIccEERNS_9allocatorIS2_EEE7__allocB7v160006Ev, symObjAddr: 0x4140, symBinAddr: 0x100007010, symSize: 0x28 }
  - { offsetInCU: 0x1135E, offset: 0x1135E, size: 0x8, addend: 0x0, symName: __ZNSt3__114__split_bufferINS_4pairIccEERNS_9allocatorIS2_EEE9__end_capB7v160006Ev, symObjAddr: 0x4168, symBinAddr: 0x100007038, symSize: 0x28 }
  - { offsetInCU: 0x11384, offset: 0x11384, size: 0x8, addend: 0x0, symName: __ZNSt3__117__compressed_pairIPNS_4pairIccEERNS_9allocatorIS2_EEEC2B7v160006IDnS6_EEOT_OT0_, symObjAddr: 0x4190, symBinAddr: 0x100007060, symSize: 0x48 }
  - { offsetInCU: 0x113DC, offset: 0x113DC, size: 0x8, addend: 0x0, symName: __ZNSt3__122__compressed_pair_elemIRNS_9allocatorINS_4pairIccEEEELi1ELb0EEC2B7v160006IS5_vEEOT_, symObjAddr: 0x41D8, symBinAddr: 0x1000070A8, symSize: 0x20 }
  - { offsetInCU: 0x1141E, offset: 0x1141E, size: 0x8, addend: 0x0, symName: __ZNSt3__19allocatorINS_4pairIccEEE8allocateB7v160006Em, symObjAddr: 0x41F8, symBinAddr: 0x1000070C8, symSize: 0x58 }
  - { offsetInCU: 0x11452, offset: 0x11452, size: 0x8, addend: 0x0, symName: __ZNSt3__117__compressed_pairIPNS_4pairIccEERNS_9allocatorIS2_EEE6secondB7v160006Ev, symObjAddr: 0x4334, symBinAddr: 0x100007204, symSize: 0x28 }
  - { offsetInCU: 0x11478, offset: 0x11478, size: 0x8, addend: 0x0, symName: __ZNSt3__122__compressed_pair_elemIRNS_9allocatorINS_4pairIccEEEELi1ELb0EE5__getB7v160006Ev, symObjAddr: 0x435C, symBinAddr: 0x10000722C, symSize: 0x18 }
  - { offsetInCU: 0x1149E, offset: 0x1149E, size: 0x8, addend: 0x0, symName: __ZNSt3__117__compressed_pairIPNS_4pairIccEERNS_9allocatorIS2_EEE5firstB7v160006Ev, symObjAddr: 0x4374, symBinAddr: 0x100007244, symSize: 0x24 }
  - { offsetInCU: 0x114C4, offset: 0x114C4, size: 0x8, addend: 0x0, symName: __ZNSt3__116reverse_iteratorIPNS_4pairIccEEEC1B7v160006ES3_, symObjAddr: 0x44C4, symBinAddr: 0x100007394, symSize: 0x34 }
  - { offsetInCU: 0x114FC, offset: 0x114FC, size: 0x8, addend: 0x0, symName: __ZNKSt3__116reverse_iteratorIPNS_4pairIccEEE4baseB7v160006Ev, symObjAddr: 0x44F8, symBinAddr: 0x1000073C8, symSize: 0x18 }
  - { offsetInCU: 0x11522, offset: 0x11522, size: 0x8, addend: 0x0, symName: __ZNKSt3__16vectorINS_4pairIccEENS_9allocatorIS2_EEE14__annotate_newB7v160006Em, symObjAddr: 0x454C, symBinAddr: 0x10000741C, symSize: 0xAC }
  - { offsetInCU: 0x11557, offset: 0x11557, size: 0x8, addend: 0x0, symName: __ZNSt3__129_AllocatorDestroyRangeReverseINS_9allocatorINS_4pairIccEEEENS_16reverse_iteratorIPS3_EEEC1B7v160006ERS4_RS7_SA_, symObjAddr: 0x4654, symBinAddr: 0x100007524, symSize: 0x44 }
  - { offsetInCU: 0x115AE, offset: 0x115AE, size: 0x8, addend: 0x0, symName: __ZNKSt3__116reverse_iteratorIPNS_4pairIccEEEdeB7v160006Ev, symObjAddr: 0x4704, symBinAddr: 0x1000075D4, symSize: 0x28 }
  - { offsetInCU: 0x115E2, offset: 0x115E2, size: 0x8, addend: 0x0, symName: __ZNSt3__116reverse_iteratorIPNS_4pairIccEEEppB7v160006Ev, symObjAddr: 0x472C, symBinAddr: 0x1000075FC, symSize: 0x20 }
  - { offsetInCU: 0x11608, offset: 0x11608, size: 0x8, addend: 0x0, symName: __ZNSt3__128__exception_guard_exceptionsINS_29_AllocatorDestroyRangeReverseINS_9allocatorINS_4pairIccEEEENS_16reverse_iteratorIPS4_EEEEE10__completeB7v160006Ev, symObjAddr: 0x474C, symBinAddr: 0x10000761C, symSize: 0x1C }
  - { offsetInCU: 0x1162E, offset: 0x1162E, size: 0x8, addend: 0x0, symName: __ZNSt3__128__exception_guard_exceptionsINS_29_AllocatorDestroyRangeReverseINS_9allocatorINS_4pairIccEEEENS_16reverse_iteratorIPS4_EEEEED1B7v160006Ev, symObjAddr: 0x4768, symBinAddr: 0x100007638, symSize: 0x2C }
  - { offsetInCU: 0x11658, offset: 0x11658, size: 0x8, addend: 0x0, symName: __ZNSt3__128__exception_guard_exceptionsINS_29_AllocatorDestroyRangeReverseINS_9allocatorINS_4pairIccEEEENS_16reverse_iteratorIPS4_EEEEEC1B7v160006ES9_, symObjAddr: 0x4794, symBinAddr: 0x100007664, symSize: 0x34 }
  - { offsetInCU: 0x11691, offset: 0x11691, size: 0x8, addend: 0x0, symName: __ZNSt3__128__exception_guard_exceptionsINS_29_AllocatorDestroyRangeReverseINS_9allocatorINS_4pairIccEEEENS_16reverse_iteratorIPS4_EEEEEC2B7v160006ES9_, symObjAddr: 0x47C8, symBinAddr: 0x100007698, symSize: 0x30 }
  - { offsetInCU: 0x116CA, offset: 0x116CA, size: 0x8, addend: 0x0, symName: __ZNSt3__129_AllocatorDestroyRangeReverseINS_9allocatorINS_4pairIccEEEENS_16reverse_iteratorIPS3_EEEC2B7v160006ERS4_RS7_SA_, symObjAddr: 0x47F8, symBinAddr: 0x1000076C8, symSize: 0x38 }
  - { offsetInCU: 0x11726, offset: 0x11726, size: 0x8, addend: 0x0, symName: __ZNSt3__119__to_address_helperINS_16reverse_iteratorIPNS_4pairIccEEEEvE6__callB7v160006ERKS5_, symObjAddr: 0x4830, symBinAddr: 0x100007700, symSize: 0x38 }
  - { offsetInCU: 0x11749, offset: 0x11749, size: 0x8, addend: 0x0, symName: __ZNKSt3__116reverse_iteratorIPNS_4pairIccEEEptB7v160006Ev, symObjAddr: 0x4868, symBinAddr: 0x100007738, symSize: 0x24 }
  - { offsetInCU: 0x1176F, offset: 0x1176F, size: 0x8, addend: 0x0, symName: __ZNSt3__128__exception_guard_exceptionsINS_29_AllocatorDestroyRangeReverseINS_9allocatorINS_4pairIccEEEENS_16reverse_iteratorIPS4_EEEEED2B7v160006Ev, symObjAddr: 0x488C, symBinAddr: 0x10000775C, symSize: 0x50 }
  - { offsetInCU: 0x11799, offset: 0x11799, size: 0x8, addend: 0x0, symName: __ZNKSt3__129_AllocatorDestroyRangeReverseINS_9allocatorINS_4pairIccEEEENS_16reverse_iteratorIPS3_EEEclB7v160006Ev, symObjAddr: 0x48DC, symBinAddr: 0x1000077AC, symSize: 0xB4 }
  - { offsetInCU: 0x117C0, offset: 0x117C0, size: 0x8, addend: 0x0, symName: __ZNSt3__116reverse_iteratorINS0_IPNS_4pairIccEEEEEC1B7v160006ES4_, symObjAddr: 0x4A00, symBinAddr: 0x1000078D0, symSize: 0x3C }
  - { offsetInCU: 0x117F8, offset: 0x117F8, size: 0x8, addend: 0x0, symName: __ZNSt3__116reverse_iteratorINS0_IPNS_4pairIccEEEEEppB7v160006Ev, symObjAddr: 0x4AC0, symBinAddr: 0x100007990, symSize: 0x30 }
  - { offsetInCU: 0x1181E, offset: 0x1181E, size: 0x8, addend: 0x0, symName: __ZNKSt3__116reverse_iteratorINS0_IPNS_4pairIccEEEEE4baseB7v160006Ev, symObjAddr: 0x4AF0, symBinAddr: 0x1000079C0, symSize: 0x24 }
  - { offsetInCU: 0x11849, offset: 0x11849, size: 0x8, addend: 0x0, symName: __ZNSt3__119__to_address_helperINS_16reverse_iteratorINS1_IPNS_4pairIccEEEEEEvE6__callB7v160006ERKS6_, symObjAddr: 0x4B14, symBinAddr: 0x1000079E4, symSize: 0x38 }
  - { offsetInCU: 0x1186C, offset: 0x1186C, size: 0x8, addend: 0x0, symName: __ZNKSt3__116reverse_iteratorINS0_IPNS_4pairIccEEEEEptB7v160006Ev, symObjAddr: 0x4B4C, symBinAddr: 0x100007A1C, symSize: 0x24 }
  - { offsetInCU: 0x11892, offset: 0x11892, size: 0x8, addend: 0x0, symName: __ZNKSt3__116reverse_iteratorINS0_IPNS_4pairIccEEEEEdeB7v160006Ev, symObjAddr: 0x4B70, symBinAddr: 0x100007A40, symSize: 0x34 }
  - { offsetInCU: 0x118C6, offset: 0x118C6, size: 0x8, addend: 0x0, symName: __ZNSt3__116reverse_iteratorIPNS_4pairIccEEEmmB7v160006Ev, symObjAddr: 0x4BA4, symBinAddr: 0x100007A74, symSize: 0x20 }
  - { offsetInCU: 0x118EC, offset: 0x118EC, size: 0x8, addend: 0x0, symName: __ZNSt3__116reverse_iteratorINS0_IPNS_4pairIccEEEEEC2B7v160006ES4_, symObjAddr: 0x4BC4, symBinAddr: 0x100007A94, symSize: 0x2C }
  - { offsetInCU: 0x11924, offset: 0x11924, size: 0x8, addend: 0x0, symName: __ZNSt3__116reverse_iteratorIPNS_4pairIccEEEC2B7v160006ES3_, symObjAddr: 0x4BF0, symBinAddr: 0x100007AC0, symSize: 0x28 }
  - { offsetInCU: 0x1195C, offset: 0x1195C, size: 0x8, addend: 0x0, symName: __ZNSt3__114__split_bufferINS_4pairIccEERNS_9allocatorIS2_EEED2Ev, symObjAddr: 0x4C18, symBinAddr: 0x100007AE8, symSize: 0x8C }
  - { offsetInCU: 0x11988, offset: 0x11988, size: 0x8, addend: 0x0, symName: __ZNSt3__114__split_bufferINS_4pairIccEERNS_9allocatorIS2_EEE5clearB7v160006Ev, symObjAddr: 0x4CA4, symBinAddr: 0x100007B74, symSize: 0x28 }
  - { offsetInCU: 0x119AE, offset: 0x119AE, size: 0x8, addend: 0x0, symName: __ZNKSt3__114__split_bufferINS_4pairIccEERNS_9allocatorIS2_EEE8capacityB7v160006Ev, symObjAddr: 0x4CCC, symBinAddr: 0x100007B9C, symSize: 0x40 }
  - { offsetInCU: 0x119D4, offset: 0x119D4, size: 0x8, addend: 0x0, symName: __ZNSt3__114__split_bufferINS_4pairIccEERNS_9allocatorIS2_EEE17__destruct_at_endB7v160006EPS2_, symObjAddr: 0x4D0C, symBinAddr: 0x100007BDC, symSize: 0x2C }
  - { offsetInCU: 0x11A08, offset: 0x11A08, size: 0x8, addend: 0x0, symName: __ZNSt3__114__split_bufferINS_4pairIccEERNS_9allocatorIS2_EEE17__destruct_at_endB7v160006EPS2_NS_17integral_constantIbLb0EEE, symObjAddr: 0x4D38, symBinAddr: 0x100007C08, symSize: 0x80 }
  - { offsetInCU: 0x11A48, offset: 0x11A48, size: 0x8, addend: 0x0, symName: __ZNKSt3__114__split_bufferINS_4pairIccEERNS_9allocatorIS2_EEE9__end_capB7v160006Ev, symObjAddr: 0x4DB8, symBinAddr: 0x100007C88, symSize: 0x28 }
  - { offsetInCU: 0x11A6E, offset: 0x11A6E, size: 0x8, addend: 0x0, symName: __ZNKSt3__117__compressed_pairIPNS_4pairIccEERNS_9allocatorIS2_EEE5firstB7v160006Ev, symObjAddr: 0x4DE0, symBinAddr: 0x100007CB0, symSize: 0x24 }
  - { offsetInCU: 0x11A94, offset: 0x11A94, size: 0x8, addend: 0x0, symName: __ZNSt3__16vectorINS_4pairIccEENS_9allocatorIS2_EEE19__copy_assign_allocB7v160006ERKS5_, symObjAddr: 0x4E04, symBinAddr: 0x100007CD4, symSize: 0x2C }
  - { offsetInCU: 0x11AC9, offset: 0x11AC9, size: 0x8, addend: 0x0, symName: __ZNSt3__16vectorINS_4pairIccEENS_9allocatorIS2_EEE6assignIPS2_Li0EEEvT_S8_, symObjAddr: 0x4E30, symBinAddr: 0x100007D00, symSize: 0x17C }
  - { offsetInCU: 0x11B68, offset: 0x11B68, size: 0x8, addend: 0x0, symName: __ZNSt3__16vectorINS_4pairIccEENS_9allocatorIS2_EEE19__copy_assign_allocB7v160006ERKS5_NS_17integral_constantIbLb0EEE, symObjAddr: 0x4FAC, symBinAddr: 0x100007E7C, symSize: 0x14 }
  - { offsetInCU: 0x11BA4, offset: 0x11BA4, size: 0x8, addend: 0x0, symName: __ZNSt3__16vectorINS_4pairIccEENS_9allocatorIS2_EEE18__construct_at_endIPS2_Li0EEEvT_S8_m, symObjAddr: 0x507C, symBinAddr: 0x100007F4C, symSize: 0x8C }
  - { offsetInCU: 0x11C17, offset: 0x11C17, size: 0x8, addend: 0x0, symName: __ZNSt3__16vectorINS_4pairIccEENS_9allocatorIS2_EEE17__destruct_at_endB7v160006EPS2_, symObjAddr: 0x5108, symBinAddr: 0x100007FD8, symSize: 0x60 }
  - { offsetInCU: 0x11C5B, offset: 0x11C5B, size: 0x8, addend: 0x0, symName: __ZNSt3__16vectorINS_4pairIccEENS_9allocatorIS2_EEE13__vdeallocateEv, symObjAddr: 0x5168, symBinAddr: 0x100008038, symSize: 0x8C }
  - { offsetInCU: 0x11C83, offset: 0x11C83, size: 0x8, addend: 0x0, symName: __ZNSt3__16vectorINS_4pairIccEENS_9allocatorIS2_EEE11__vallocateB7v160006Em, symObjAddr: 0x51F4, symBinAddr: 0x1000080C4, symSize: 0xAC }
  - { offsetInCU: 0x11CEB, offset: 0x11CEB, size: 0x8, addend: 0x0, symName: __ZNKSt3__111__copy_loopINS_17_ClassicAlgPolicyEEclB7v160006IPNS_4pairIccEES6_S6_EENS4_IT_T1_EES7_T0_S8_, symObjAddr: 0x54A0, symBinAddr: 0x100008370, symSize: 0x88 }
  - { offsetInCU: 0x11D56, offset: 0x11D56, size: 0x8, addend: 0x0, symName: __ZNSt3__14pairIccEaSB7v160006ERKS1_, symObjAddr: 0x55EC, symBinAddr: 0x1000084BC, symSize: 0x30 }
  - { offsetInCU: 0x11D8B, offset: 0x11D8B, size: 0x8, addend: 0x0, symName: __ZNSt3__118__unwrap_iter_implIPNS_4pairIccEELb1EE8__unwrapB7v160006ES3_, symObjAddr: 0x561C, symBinAddr: 0x1000084EC, symSize: 0x24 }
  - { offsetInCU: 0x11DB4, offset: 0x11DB4, size: 0x8, addend: 0x0, symName: __ZNSt3__14pairIPNS0_IccEES2_EC1B7v160006IS2_S2_LPv0EEEOT_OT0_, symObjAddr: 0x5640, symBinAddr: 0x100008510, symSize: 0x3C }
  - { offsetInCU: 0x11E12, offset: 0x11E12, size: 0x8, addend: 0x0, symName: __ZNSt3__14pairIPNS0_IccEES2_EC2B7v160006IS2_S2_LPv0EEEOT_OT0_, symObjAddr: 0x567C, symBinAddr: 0x10000854C, symSize: 0x34 }
  - { offsetInCU: 0x11E70, offset: 0x11E70, size: 0x8, addend: 0x0, symName: __ZNSt3__118__unwrap_iter_implIPNS_4pairIccEELb1EE8__rewrapB7v160006ES3_S3_, symObjAddr: 0x56B0, symBinAddr: 0x100008580, symSize: 0x50 }
  - { offsetInCU: 0x11EA1, offset: 0x11EA1, size: 0x8, addend: 0x0, symName: __ZNSt3__129_AllocatorDestroyRangeReverseINS_9allocatorINS_4pairIccEEEEPS3_EC1B7v160006ERS4_RS5_S8_, symObjAddr: 0x5840, symBinAddr: 0x100008710, symSize: 0x44 }
  - { offsetInCU: 0x11EF8, offset: 0x11EF8, size: 0x8, addend: 0x0, symName: __ZNSt3__116allocator_traitsINS_9allocatorINS_4pairIccEEEEE9constructB7v160006IS3_JRS3_EvEEvRS4_PT_DpOT0_, symObjAddr: 0x5884, symBinAddr: 0x100008754, symSize: 0x34 }
  - { offsetInCU: 0x11F4F, offset: 0x11F4F, size: 0x8, addend: 0x0, symName: __ZNSt3__128__exception_guard_exceptionsINS_29_AllocatorDestroyRangeReverseINS_9allocatorINS_4pairIccEEEEPS4_EEE10__completeB7v160006Ev, symObjAddr: 0x58B8, symBinAddr: 0x100008788, symSize: 0x1C }
  - { offsetInCU: 0x11F75, offset: 0x11F75, size: 0x8, addend: 0x0, symName: __ZNSt3__128__exception_guard_exceptionsINS_29_AllocatorDestroyRangeReverseINS_9allocatorINS_4pairIccEEEEPS4_EEED1B7v160006Ev, symObjAddr: 0x58D4, symBinAddr: 0x1000087A4, symSize: 0x2C }
  - { offsetInCU: 0x11F9F, offset: 0x11F9F, size: 0x8, addend: 0x0, symName: __ZNSt3__128__exception_guard_exceptionsINS_29_AllocatorDestroyRangeReverseINS_9allocatorINS_4pairIccEEEEPS4_EEEC1B7v160006ES7_, symObjAddr: 0x5900, symBinAddr: 0x1000087D0, symSize: 0x34 }
  - { offsetInCU: 0x11FD8, offset: 0x11FD8, size: 0x8, addend: 0x0, symName: __ZNSt3__128__exception_guard_exceptionsINS_29_AllocatorDestroyRangeReverseINS_9allocatorINS_4pairIccEEEEPS4_EEEC2B7v160006ES7_, symObjAddr: 0x5934, symBinAddr: 0x100008804, symSize: 0x30 }
  - { offsetInCU: 0x12011, offset: 0x12011, size: 0x8, addend: 0x0, symName: __ZNSt3__129_AllocatorDestroyRangeReverseINS_9allocatorINS_4pairIccEEEEPS3_EC2B7v160006ERS4_RS5_S8_, symObjAddr: 0x5964, symBinAddr: 0x100008834, symSize: 0x38 }
  - { offsetInCU: 0x12068, offset: 0x12068, size: 0x8, addend: 0x0, symName: __ZNSt3__19allocatorINS_4pairIccEEE9constructB7v160006IS2_JRS2_EEEvPT_DpOT0_, symObjAddr: 0x599C, symBinAddr: 0x10000886C, symSize: 0x28 }
  - { offsetInCU: 0x120BE, offset: 0x120BE, size: 0x8, addend: 0x0, symName: __ZNSt3__128__exception_guard_exceptionsINS_29_AllocatorDestroyRangeReverseINS_9allocatorINS_4pairIccEEEEPS4_EEED2B7v160006Ev, symObjAddr: 0x59C4, symBinAddr: 0x100008894, symSize: 0x50 }
  - { offsetInCU: 0x120E8, offset: 0x120E8, size: 0x8, addend: 0x0, symName: __ZNKSt3__129_AllocatorDestroyRangeReverseINS_9allocatorINS_4pairIccEEEEPS3_EclB7v160006Ev, symObjAddr: 0x5A14, symBinAddr: 0x1000088E4, symSize: 0x68 }
  - { offsetInCU: 0x1210E, offset: 0x1210E, size: 0x8, addend: 0x0, symName: __ZNSt3__16vectorINS_4pairIccEENS_9allocatorIS2_EEE27__invalidate_iterators_pastB7v160006EPS2_, symObjAddr: 0x5AEC, symBinAddr: 0x1000089BC, symSize: 0x14 }
  - { offsetInCU: 0x12145, offset: 0x12145, size: 0x8, addend: 0x0, symName: __ZNKSt3__16vectorINS_4pairIccEENS_9allocatorIS2_EEE17__annotate_shrinkB7v160006Em, symObjAddr: 0x5B00, symBinAddr: 0x1000089D0, symSize: 0xB4 }
  - { offsetInCU: 0x1217A, offset: 0x1217A, size: 0x8, addend: 0x0, symName: __ZNSt3__16vectorINS_4pairIccEENS_9allocatorIS2_EEE5clearB7v160006Ev, symObjAddr: 0x5BB4, symBinAddr: 0x100008A84, symSize: 0x4C }
  - { offsetInCU: 0x121AF, offset: 0x121AF, size: 0x8, addend: 0x0, symName: __ZNSt3__16vectorIhNS_9allocatorIhEEEC2B7v160006Ev, symObjAddr: 0x5C00, symBinAddr: 0x100008AD0, symSize: 0x58 }
  - { offsetInCU: 0x121D9, offset: 0x121D9, size: 0x8, addend: 0x0, symName: __ZNSt3__117__compressed_pairIPhNS_9allocatorIhEEEC1B7v160006IDnNS_18__default_init_tagEEEOT_OT0_, symObjAddr: 0x5C58, symBinAddr: 0x100008B28, symSize: 0x3C }
  - { offsetInCU: 0x12231, offset: 0x12231, size: 0x8, addend: 0x0, symName: __ZNSt3__117__compressed_pairIPhNS_9allocatorIhEEEC2B7v160006IDnNS_18__default_init_tagEEEOT_OT0_, symObjAddr: 0x5CA4, symBinAddr: 0x100008B74, symSize: 0x40 }
  - { offsetInCU: 0x12289, offset: 0x12289, size: 0x8, addend: 0x0, symName: __ZNSt3__122__compressed_pair_elemIPhLi0ELb0EEC2B7v160006IDnvEEOT_, symObjAddr: 0x5CE4, symBinAddr: 0x100008BB4, symSize: 0x1C }
  - { offsetInCU: 0x122CB, offset: 0x122CB, size: 0x8, addend: 0x0, symName: __ZNSt3__122__compressed_pair_elemINS_9allocatorIhEELi1ELb1EEC2B7v160006ENS_18__default_init_tagE, symObjAddr: 0x5D00, symBinAddr: 0x100008BD0, symSize: 0x2C }
  - { offsetInCU: 0x122FF, offset: 0x122FF, size: 0x8, addend: 0x0, symName: __ZNSt3__19allocatorIhEC2B7v160006Ev, symObjAddr: 0x5D2C, symBinAddr: 0x100008BFC, symSize: 0x2C }
  - { offsetInCU: 0x12329, offset: 0x12329, size: 0x8, addend: 0x0, symName: __ZNSt3__116__non_trivial_ifILb1ENS_9allocatorIhEEEC2B7v160006Ev, symObjAddr: 0x5D58, symBinAddr: 0x100008C28, symSize: 0x14 }
  - { offsetInCU: 0x12353, offset: 0x12353, size: 0x8, addend: 0x0, symName: __ZNSt3__16vectorIhNS_9allocatorIhEEED2B7v160006Ev, symObjAddr: 0x5D6C, symBinAddr: 0x100008C3C, symSize: 0x44 }
  - { offsetInCU: 0x1237D, offset: 0x1237D, size: 0x8, addend: 0x0, symName: __ZNSt3__16vectorIhNS_9allocatorIhEEE16__destroy_vectorC1ERS3_, symObjAddr: 0x5DB0, symBinAddr: 0x100008C80, symSize: 0x34 }
  - { offsetInCU: 0x123B6, offset: 0x123B6, size: 0x8, addend: 0x0, symName: __ZNSt3__16vectorIhNS_9allocatorIhEEE16__destroy_vectorclB7v160006Ev, symObjAddr: 0x5DE4, symBinAddr: 0x100008CB4, symSize: 0x9C }
  - { offsetInCU: 0x123DC, offset: 0x123DC, size: 0x8, addend: 0x0, symName: __ZNSt3__16vectorIhNS_9allocatorIhEEE16__destroy_vectorC2ERS3_, symObjAddr: 0x5E80, symBinAddr: 0x100008D50, symSize: 0x20 }
  - { offsetInCU: 0x12415, offset: 0x12415, size: 0x8, addend: 0x0, symName: __ZNKSt3__16vectorIhNS_9allocatorIhEEE17__annotate_deleteB7v160006Ev, symObjAddr: 0x5EA0, symBinAddr: 0x100008D70, symSize: 0xB8 }
  - { offsetInCU: 0x1243B, offset: 0x1243B, size: 0x8, addend: 0x0, symName: __ZNSt3__16vectorIhNS_9allocatorIhEEE7__clearB7v160006Ev, symObjAddr: 0x5F68, symBinAddr: 0x100008E38, symSize: 0x28 }
  - { offsetInCU: 0x12461, offset: 0x12461, size: 0x8, addend: 0x0, symName: __ZNSt3__116allocator_traitsINS_9allocatorIhEEE10deallocateB7v160006ERS2_Phm, symObjAddr: 0x5F90, symBinAddr: 0x100008E60, symSize: 0x34 }
  - { offsetInCU: 0x124A3, offset: 0x124A3, size: 0x8, addend: 0x0, symName: __ZNSt3__16vectorIhNS_9allocatorIhEEE7__allocB7v160006Ev, symObjAddr: 0x5FC4, symBinAddr: 0x100008E94, symSize: 0x28 }
  - { offsetInCU: 0x124C9, offset: 0x124C9, size: 0x8, addend: 0x0, symName: __ZNKSt3__16vectorIhNS_9allocatorIhEEE8capacityB7v160006Ev, symObjAddr: 0x5FEC, symBinAddr: 0x100008EBC, symSize: 0x38 }
  - { offsetInCU: 0x124EF, offset: 0x124EF, size: 0x8, addend: 0x0, symName: __ZNKSt3__16vectorIhNS_9allocatorIhEEE31__annotate_contiguous_containerB7v160006EPKvS5_S5_S5_, symObjAddr: 0x6024, symBinAddr: 0x100008EF4, symSize: 0x20 }
  - { offsetInCU: 0x12541, offset: 0x12541, size: 0x8, addend: 0x0, symName: __ZNKSt3__16vectorIhNS_9allocatorIhEEE4dataB7v160006Ev, symObjAddr: 0x6044, symBinAddr: 0x100008F14, symSize: 0x28 }
  - { offsetInCU: 0x12567, offset: 0x12567, size: 0x8, addend: 0x0, symName: __ZNSt3__16vectorIhNS_9allocatorIhEEE22__base_destruct_at_endB7v160006EPh, symObjAddr: 0x6080, symBinAddr: 0x100008F50, symSize: 0x8C }
  - { offsetInCU: 0x125AB, offset: 0x125AB, size: 0x8, addend: 0x0, symName: __ZNSt3__116allocator_traitsINS_9allocatorIhEEE7destroyB7v160006IhvEEvRS2_PT_, symObjAddr: 0x610C, symBinAddr: 0x100008FDC, symSize: 0x2C }
  - { offsetInCU: 0x125E8, offset: 0x125E8, size: 0x8, addend: 0x0, symName: __ZNSt3__19allocatorIhE7destroyB7v160006EPh, symObjAddr: 0x6138, symBinAddr: 0x100009008, symSize: 0x14 }
  - { offsetInCU: 0x1261C, offset: 0x1261C, size: 0x8, addend: 0x0, symName: __ZNSt3__19allocatorIhE10deallocateB7v160006EPhm, symObjAddr: 0x614C, symBinAddr: 0x10000901C, symSize: 0x40 }
  - { offsetInCU: 0x1265E, offset: 0x1265E, size: 0x8, addend: 0x0, symName: __ZNSt3__117__compressed_pairIPhNS_9allocatorIhEEE6secondB7v160006Ev, symObjAddr: 0x618C, symBinAddr: 0x10000905C, symSize: 0x24 }
  - { offsetInCU: 0x12684, offset: 0x12684, size: 0x8, addend: 0x0, symName: __ZNSt3__122__compressed_pair_elemINS_9allocatorIhEELi1ELb1EE5__getB7v160006Ev, symObjAddr: 0x61B0, symBinAddr: 0x100009080, symSize: 0x14 }
  - { offsetInCU: 0x126AA, offset: 0x126AA, size: 0x8, addend: 0x0, symName: __ZNKSt3__16vectorIhNS_9allocatorIhEEE9__end_capB7v160006Ev, symObjAddr: 0x61C4, symBinAddr: 0x100009094, symSize: 0x28 }
  - { offsetInCU: 0x126D0, offset: 0x126D0, size: 0x8, addend: 0x0, symName: __ZNKSt3__117__compressed_pairIPhNS_9allocatorIhEEE5firstB7v160006Ev, symObjAddr: 0x61EC, symBinAddr: 0x1000090BC, symSize: 0x24 }
  - { offsetInCU: 0x126F6, offset: 0x126F6, size: 0x8, addend: 0x0, symName: __ZNKSt3__122__compressed_pair_elemIPhLi0ELb0EE5__getB7v160006Ev, symObjAddr: 0x6210, symBinAddr: 0x1000090E0, symSize: 0x14 }
  - { offsetInCU: 0x1271C, offset: 0x1271C, size: 0x8, addend: 0x0, symName: __ZNSt3__112basic_stringIcNS_11char_traitsIcEENS_9allocatorIcEEE15__make_iteratorB7v160006EPc, symObjAddr: 0x6224, symBinAddr: 0x1000090F4, symSize: 0x34 }
  - { offsetInCU: 0x12751, offset: 0x12751, size: 0x8, addend: 0x0, symName: __ZNSt3__111__wrap_iterIPcEC1B7v160006EPKvS1_, symObjAddr: 0x6258, symBinAddr: 0x100009128, symSize: 0x3C }
  - { offsetInCU: 0x12797, offset: 0x12797, size: 0x8, addend: 0x0, symName: __ZNSt3__111__wrap_iterIPcEC2B7v160006EPKvS1_, symObjAddr: 0x6294, symBinAddr: 0x100009164, symSize: 0x24 }
  - { offsetInCU: 0x127DD, offset: 0x127DD, size: 0x8, addend: 0x0, symName: __ZNSt3__16vectorIhNS_9allocatorIhEEE9__end_capB7v160006Ev, symObjAddr: 0x62B8, symBinAddr: 0x100009188, symSize: 0x28 }
  - { offsetInCU: 0x12809, offset: 0x12809, size: 0x8, addend: 0x0, symName: __ZNSt3__16vectorIhNS_9allocatorIhEEE22__construct_one_at_endB7v160006IJhEEEvDpOT_, symObjAddr: 0x62E0, symBinAddr: 0x1000091B0, symSize: 0x90 }
  - { offsetInCU: 0x12858, offset: 0x12858, size: 0x8, addend: 0x0, symName: __ZNSt3__16vectorIhNS_9allocatorIhEEE21__push_back_slow_pathIhEEvOT_, symObjAddr: 0x6370, symBinAddr: 0x100009240, symSize: 0xD8 }
  - { offsetInCU: 0x128B6, offset: 0x128B6, size: 0x8, addend: 0x0, symName: __ZNSt3__117__compressed_pairIPhNS_9allocatorIhEEE5firstB7v160006Ev, symObjAddr: 0x6448, symBinAddr: 0x100009318, symSize: 0x24 }
  - { offsetInCU: 0x128DC, offset: 0x128DC, size: 0x8, addend: 0x0, symName: __ZNSt3__122__compressed_pair_elemIPhLi0ELb0EE5__getB7v160006Ev, symObjAddr: 0x646C, symBinAddr: 0x10000933C, symSize: 0x14 }
  - { offsetInCU: 0x1291B, offset: 0x1291B, size: 0x8, addend: 0x0, symName: __ZNSt3__16vectorIhNS_9allocatorIhEEE21_ConstructTransactionC1B7v160006ERS3_m, symObjAddr: 0x6480, symBinAddr: 0x100009350, symSize: 0x3C }
  - { offsetInCU: 0x12963, offset: 0x12963, size: 0x8, addend: 0x0, symName: __ZNSt3__116allocator_traitsINS_9allocatorIhEEE9constructB7v160006IhJhEvEEvRS2_PT_DpOT0_, symObjAddr: 0x64BC, symBinAddr: 0x10000938C, symSize: 0x34 }
  - { offsetInCU: 0x129BA, offset: 0x129BA, size: 0x8, addend: 0x0, symName: __ZNSt3__16vectorIhNS_9allocatorIhEEE21_ConstructTransactionD1B7v160006Ev, symObjAddr: 0x64F0, symBinAddr: 0x1000093C0, symSize: 0x2C }
  - { offsetInCU: 0x129E4, offset: 0x129E4, size: 0x8, addend: 0x0, symName: __ZNSt3__16vectorIhNS_9allocatorIhEEE21_ConstructTransactionC2B7v160006ERS3_m, symObjAddr: 0x651C, symBinAddr: 0x1000093EC, symSize: 0x44 }
  - { offsetInCU: 0x12A2C, offset: 0x12A2C, size: 0x8, addend: 0x0, symName: __ZNSt3__19allocatorIhE9constructB7v160006IhJhEEEvPT_DpOT0_, symObjAddr: 0x6560, symBinAddr: 0x100009430, symSize: 0x28 }
  - { offsetInCU: 0x12A82, offset: 0x12A82, size: 0x8, addend: 0x0, symName: __ZNSt3__16vectorIhNS_9allocatorIhEEE21_ConstructTransactionD2B7v160006Ev, symObjAddr: 0x6588, symBinAddr: 0x100009458, symSize: 0x20 }
  - { offsetInCU: 0x12AAC, offset: 0x12AAC, size: 0x8, addend: 0x0, symName: __ZNKSt3__16vectorIhNS_9allocatorIhEEE11__recommendB7v160006Em, symObjAddr: 0x65A8, symBinAddr: 0x100009478, symSize: 0xB4 }
  - { offsetInCU: 0x12B01, offset: 0x12B01, size: 0x8, addend: 0x0, symName: __ZNSt3__114__split_bufferIhRNS_9allocatorIhEEEC1EmmS3_, symObjAddr: 0x665C, symBinAddr: 0x10000952C, symSize: 0x44 }
  - { offsetInCU: 0x12B57, offset: 0x12B57, size: 0x8, addend: 0x0, symName: __ZNSt3__114__split_bufferIhRNS_9allocatorIhEEED1Ev, symObjAddr: 0x67B8, symBinAddr: 0x100009688, symSize: 0x2C }
  - { offsetInCU: 0x12B83, offset: 0x12B83, size: 0x8, addend: 0x0, symName: __ZNKSt3__16vectorIhNS_9allocatorIhEEE8max_sizeEv, symObjAddr: 0x67E4, symBinAddr: 0x1000096B4, symSize: 0x60 }
  - { offsetInCU: 0x12BAB, offset: 0x12BAB, size: 0x8, addend: 0x0, symName: __ZNKSt3__16vectorIhNS_9allocatorIhEEE20__throw_length_errorB7v160006Ev, symObjAddr: 0x6844, symBinAddr: 0x100009714, symSize: 0x1C }
  - { offsetInCU: 0x12BDB, offset: 0x12BDB, size: 0x8, addend: 0x0, symName: __ZNSt3__116allocator_traitsINS_9allocatorIhEEE8max_sizeB7v160006IS2_vEEmRKS2_, symObjAddr: 0x6860, symBinAddr: 0x100009730, symSize: 0x24 }
  - { offsetInCU: 0x12C09, offset: 0x12C09, size: 0x8, addend: 0x0, symName: __ZNKSt3__16vectorIhNS_9allocatorIhEEE7__allocB7v160006Ev, symObjAddr: 0x6884, symBinAddr: 0x100009754, symSize: 0x28 }
  - { offsetInCU: 0x12C2F, offset: 0x12C2F, size: 0x8, addend: 0x0, symName: __ZNKSt3__19allocatorIhE8max_sizeB7v160006Ev, symObjAddr: 0x68AC, symBinAddr: 0x10000977C, symSize: 0x14 }
  - { offsetInCU: 0x12C55, offset: 0x12C55, size: 0x8, addend: 0x0, symName: __ZNKSt3__117__compressed_pairIPhNS_9allocatorIhEEE6secondB7v160006Ev, symObjAddr: 0x68C0, symBinAddr: 0x100009790, symSize: 0x24 }
  - { offsetInCU: 0x12C7B, offset: 0x12C7B, size: 0x8, addend: 0x0, symName: __ZNKSt3__122__compressed_pair_elemINS_9allocatorIhEELi1ELb1EE5__getB7v160006Ev, symObjAddr: 0x68E4, symBinAddr: 0x1000097B4, symSize: 0x14 }
  - { offsetInCU: 0x12CA1, offset: 0x12CA1, size: 0x8, addend: 0x0, symName: __ZNSt3__114__split_bufferIhRNS_9allocatorIhEEEC2EmmS3_, symObjAddr: 0x68F8, symBinAddr: 0x1000097C8, symSize: 0xD4 }
  - { offsetInCU: 0x12D14, offset: 0x12D14, size: 0x8, addend: 0x0, symName: __ZNSt3__117__compressed_pairIPhRNS_9allocatorIhEEEC1B7v160006IDnS4_EEOT_OT0_, symObjAddr: 0x69CC, symBinAddr: 0x10000989C, symSize: 0x3C }
  - { offsetInCU: 0x12D6C, offset: 0x12D6C, size: 0x8, addend: 0x0, symName: __ZNSt3__114__split_bufferIhRNS_9allocatorIhEEE7__allocB7v160006Ev, symObjAddr: 0x6A48, symBinAddr: 0x100009918, symSize: 0x28 }
  - { offsetInCU: 0x12D92, offset: 0x12D92, size: 0x8, addend: 0x0, symName: __ZNSt3__114__split_bufferIhRNS_9allocatorIhEEE9__end_capB7v160006Ev, symObjAddr: 0x6A70, symBinAddr: 0x100009940, symSize: 0x28 }
  - { offsetInCU: 0x12DB8, offset: 0x12DB8, size: 0x8, addend: 0x0, symName: __ZNSt3__117__compressed_pairIPhRNS_9allocatorIhEEEC2B7v160006IDnS4_EEOT_OT0_, symObjAddr: 0x6A98, symBinAddr: 0x100009968, symSize: 0x48 }
  - { offsetInCU: 0x12E10, offset: 0x12E10, size: 0x8, addend: 0x0, symName: __ZNSt3__122__compressed_pair_elemIRNS_9allocatorIhEELi1ELb0EEC2B7v160006IS3_vEEOT_, symObjAddr: 0x6AE0, symBinAddr: 0x1000099B0, symSize: 0x20 }
  - { offsetInCU: 0x12E52, offset: 0x12E52, size: 0x8, addend: 0x0, symName: __ZNSt3__19allocatorIhE8allocateB7v160006Em, symObjAddr: 0x6B00, symBinAddr: 0x1000099D0, symSize: 0x58 }
  - { offsetInCU: 0x12E86, offset: 0x12E86, size: 0x8, addend: 0x0, symName: __ZNSt3__117__compressed_pairIPhRNS_9allocatorIhEEE6secondB7v160006Ev, symObjAddr: 0x6B58, symBinAddr: 0x100009A28, symSize: 0x28 }
  - { offsetInCU: 0x12EAC, offset: 0x12EAC, size: 0x8, addend: 0x0, symName: __ZNSt3__122__compressed_pair_elemIRNS_9allocatorIhEELi1ELb0EE5__getB7v160006Ev, symObjAddr: 0x6B80, symBinAddr: 0x100009A50, symSize: 0x18 }
  - { offsetInCU: 0x12ED2, offset: 0x12ED2, size: 0x8, addend: 0x0, symName: __ZNSt3__117__compressed_pairIPhRNS_9allocatorIhEEE5firstB7v160006Ev, symObjAddr: 0x6B98, symBinAddr: 0x100009A68, symSize: 0x24 }
  - { offsetInCU: 0x12EF8, offset: 0x12EF8, size: 0x8, addend: 0x0, symName: __ZNSt3__116reverse_iteratorIPhEC1B7v160006ES1_, symObjAddr: 0x6C34, symBinAddr: 0x100009B04, symSize: 0x34 }
  - { offsetInCU: 0x12F30, offset: 0x12F30, size: 0x8, addend: 0x0, symName: __ZNKSt3__116reverse_iteratorIPhE4baseB7v160006Ev, symObjAddr: 0x6C68, symBinAddr: 0x100009B38, symSize: 0x18 }
  - { offsetInCU: 0x12F56, offset: 0x12F56, size: 0x8, addend: 0x0, symName: __ZNKSt3__16vectorIhNS_9allocatorIhEEE14__annotate_newB7v160006Em, symObjAddr: 0x6CBC, symBinAddr: 0x100009B8C, symSize: 0xAC }
  - { offsetInCU: 0x12FAF, offset: 0x12FAF, size: 0x8, addend: 0x0, symName: __ZNKSt3__111__move_loopINS_17_ClassicAlgPolicyEEclB7v160006INS_16reverse_iteratorIPhEES6_S6_EENS_4pairIT_T1_EES8_T0_S9_, symObjAddr: 0x7068, symBinAddr: 0x100009F38, symSize: 0xA0 }
  - { offsetInCU: 0x1301A, offset: 0x1301A, size: 0x8, addend: 0x0, symName: __ZNSt3__18_IterOpsINS_17_ClassicAlgPolicyEE11__iter_moveB7v160006IRNS_16reverse_iteratorIPhEEEENS_9enable_ifIXsr12is_referenceIDTdeclsr3stdE7declvalIRT_EEEEE5valueEDTclsr3stdE4movedeclsr3stdE7declvalISA_EEEEE4typeEOS9_, symObjAddr: 0x729C, symBinAddr: 0x10000A16C, symSize: 0x28 }
  - { offsetInCU: 0x13046, offset: 0x13046, size: 0x8, addend: 0x0, symName: __ZNKSt3__116reverse_iteratorIPhEdeB7v160006Ev, symObjAddr: 0x72C4, symBinAddr: 0x10000A194, symSize: 0x28 }
  - { offsetInCU: 0x1307A, offset: 0x1307A, size: 0x8, addend: 0x0, symName: __ZNSt3__116reverse_iteratorIPhEppB7v160006Ev, symObjAddr: 0x72EC, symBinAddr: 0x10000A1BC, symSize: 0x20 }
  - { offsetInCU: 0x130A0, offset: 0x130A0, size: 0x8, addend: 0x0, symName: __ZNSt3__18_IterOpsINS_17_ClassicAlgPolicyEE25__validate_iter_referenceB7v160006IRNS_16reverse_iteratorIPhEEEEvv, symObjAddr: 0x730C, symBinAddr: 0x10000A1DC, symSize: 0x4 }
  - { offsetInCU: 0x130BE, offset: 0x130BE, size: 0x8, addend: 0x0, symName: __ZNSt3__118__unwrap_iter_implINS_16reverse_iteratorIPhEELb0EE8__unwrapB7v160006ES3_, symObjAddr: 0x7310, symBinAddr: 0x10000A1E0, symSize: 0x24 }
  - { offsetInCU: 0x130E7, offset: 0x130E7, size: 0x8, addend: 0x0, symName: __ZNSt3__14pairINS_16reverse_iteratorIPhEES3_EC1B7v160006IS3_S3_LPv0EEEOT_OT0_, symObjAddr: 0x7334, symBinAddr: 0x10000A204, symSize: 0x3C }
  - { offsetInCU: 0x13145, offset: 0x13145, size: 0x8, addend: 0x0, symName: __ZNSt3__14pairINS_16reverse_iteratorIPhEES3_EC2B7v160006IS3_S3_LPv0EEEOT_OT0_, symObjAddr: 0x7370, symBinAddr: 0x10000A240, symSize: 0x34 }
  - { offsetInCU: 0x131A3, offset: 0x131A3, size: 0x8, addend: 0x0, symName: __ZNSt3__118__unwrap_iter_implINS_16reverse_iteratorIPhEELb0EE8__rewrapB7v160006ES3_S3_, symObjAddr: 0x73A4, symBinAddr: 0x10000A274, symSize: 0x2C }
  - { offsetInCU: 0x131D0, offset: 0x131D0, size: 0x8, addend: 0x0, symName: __ZNSt3__116reverse_iteratorIPhEC2B7v160006ES1_, symObjAddr: 0x73D0, symBinAddr: 0x10000A2A0, symSize: 0x28 }
  - { offsetInCU: 0x13208, offset: 0x13208, size: 0x8, addend: 0x0, symName: __ZNSt3__114__split_bufferIhRNS_9allocatorIhEEED2Ev, symObjAddr: 0x73F8, symBinAddr: 0x10000A2C8, symSize: 0x8C }
  - { offsetInCU: 0x13234, offset: 0x13234, size: 0x8, addend: 0x0, symName: __ZNSt3__114__split_bufferIhRNS_9allocatorIhEEE5clearB7v160006Ev, symObjAddr: 0x7484, symBinAddr: 0x10000A354, symSize: 0x28 }
  - { offsetInCU: 0x1325A, offset: 0x1325A, size: 0x8, addend: 0x0, symName: __ZNKSt3__114__split_bufferIhRNS_9allocatorIhEEE8capacityB7v160006Ev, symObjAddr: 0x74AC, symBinAddr: 0x10000A37C, symSize: 0x38 }
  - { offsetInCU: 0x13280, offset: 0x13280, size: 0x8, addend: 0x0, symName: __ZNSt3__114__split_bufferIhRNS_9allocatorIhEEE17__destruct_at_endB7v160006EPh, symObjAddr: 0x74E4, symBinAddr: 0x10000A3B4, symSize: 0x2C }
  - { offsetInCU: 0x132B4, offset: 0x132B4, size: 0x8, addend: 0x0, symName: __ZNSt3__114__split_bufferIhRNS_9allocatorIhEEE17__destruct_at_endB7v160006EPhNS_17integral_constantIbLb0EEE, symObjAddr: 0x7510, symBinAddr: 0x10000A3E0, symSize: 0x80 }
  - { offsetInCU: 0x132F4, offset: 0x132F4, size: 0x8, addend: 0x0, symName: __ZNKSt3__114__split_bufferIhRNS_9allocatorIhEEE9__end_capB7v160006Ev, symObjAddr: 0x7590, symBinAddr: 0x10000A460, symSize: 0x28 }
  - { offsetInCU: 0x1331A, offset: 0x1331A, size: 0x8, addend: 0x0, symName: __ZNKSt3__117__compressed_pairIPhRNS_9allocatorIhEEE5firstB7v160006Ev, symObjAddr: 0x75B8, symBinAddr: 0x10000A488, symSize: 0x24 }
  - { offsetInCU: 0x13340, offset: 0x13340, size: 0x8, addend: 0x0, symName: __ZNSt3__19basic_iosIcNS_11char_traitsIcEEEC2B7v160006Ev, symObjAddr: 0x75DC, symBinAddr: 0x10000A4AC, symSize: 0x44 }
  - { offsetInCU: 0x1336A, offset: 0x1336A, size: 0x8, addend: 0x0, symName: __ZNSt3__113basic_istreamIcNS_11char_traitsIcEEEC2B7v160006EPNS_15basic_streambufIcS2_EE, symObjAddr: 0x7620, symBinAddr: 0x10000A4F0, symSize: 0x64 }
  - { offsetInCU: 0x133AF, offset: 0x133AF, size: 0x8, addend: 0x0, symName: __ZNSt3__115basic_stringbufIcNS_11char_traitsIcEENS_9allocatorIcEEEC1B7v160006ERKNS_12basic_stringIcS2_S4_EEj, symObjAddr: 0x7684, symBinAddr: 0x10000A554, symSize: 0x3C }
  - { offsetInCU: 0x133F5, offset: 0x133F5, size: 0x8, addend: 0x0, symName: __ZNSt3__18ios_baseC2B7v160006Ev, symObjAddr: 0x76C0, symBinAddr: 0x10000A590, symSize: 0x24 }
  - { offsetInCU: 0x1341F, offset: 0x1341F, size: 0x8, addend: 0x0, symName: __ZNSt3__19basic_iosIcNS_11char_traitsIcEEE4initB7v160006EPNS_15basic_streambufIcS2_EE, symObjAddr: 0x76E4, symBinAddr: 0x10000A5B4, symSize: 0x44 }
  - { offsetInCU: 0x13456, offset: 0x13456, size: 0x8, addend: 0x0, symName: __ZNSt3__115basic_stringbufIcNS_11char_traitsIcEENS_9allocatorIcEEEC2B7v160006ERKNS_12basic_stringIcS2_S4_EEj, symObjAddr: 0x7728, symBinAddr: 0x10000A5F8, symSize: 0xB4 }
  - { offsetInCU: 0x1349C, offset: 0x1349C, size: 0x8, addend: 0x0, symName: __ZNKSt3__112basic_stringIcNS_11char_traitsIcEENS_9allocatorIcEEE13get_allocatorB7v160006Ev, symObjAddr: 0x77DC, symBinAddr: 0x10000A6AC, symSize: 0x24 }
  - { offsetInCU: 0x134C2, offset: 0x134C2, size: 0x8, addend: 0x0, symName: __ZNSt3__112basic_stringIcNS_11char_traitsIcEENS_9allocatorIcEEEC1B7v160006ERKS4_, symObjAddr: 0x7800, symBinAddr: 0x10000A6D0, symSize: 0x34 }
  - { offsetInCU: 0x134FB, offset: 0x134FB, size: 0x8, addend: 0x0, symName: __ZNSt3__112basic_stringIcNS_11char_traitsIcEENS_9allocatorIcEEEC2B7v160006ERKS4_, symObjAddr: 0x7834, symBinAddr: 0x10000A704, symSize: 0x50 }
  - { offsetInCU: 0x13534, offset: 0x13534, size: 0x8, addend: 0x0, symName: __ZNSt3__117__compressed_pairINS_12basic_stringIcNS_11char_traitsIcEENS_9allocatorIcEEE5__repES5_EC1B7v160006INS_18__default_init_tagERKS5_EEOT_OT0_, symObjAddr: 0x7884, symBinAddr: 0x10000A754, symSize: 0x3C }
  - { offsetInCU: 0x1358C, offset: 0x1358C, size: 0x8, addend: 0x0, symName: __ZNSt3__117__compressed_pairINS_12basic_stringIcNS_11char_traitsIcEENS_9allocatorIcEEE5__repES5_EC2B7v160006INS_18__default_init_tagERKS5_EEOT_OT0_, symObjAddr: 0x78C0, symBinAddr: 0x10000A790, symSize: 0x40 }
  - { offsetInCU: 0x135E4, offset: 0x135E4, size: 0x8, addend: 0x0, symName: __ZNSt3__122__compressed_pair_elemINS_9allocatorIcEELi1ELb1EEC2B7v160006IRKS2_vEEOT_, symObjAddr: 0x7900, symBinAddr: 0x10000A7D0, symSize: 0x18 }
  - { offsetInCU: 0x13626, offset: 0x13626, size: 0x8, addend: 0x0, symName: __ZNSt3__111char_traitsIcE2eqEcc, symObjAddr: 0x7918, symBinAddr: 0x10000A7E8, symSize: 0x28 }
  - { offsetInCU: 0x13657, offset: 0x13657, size: 0x8, addend: 0x0, symName: __ZNSt3__16vectorIhNS_9allocatorIhEEE11__make_iterB7v160006EPh, symObjAddr: 0x7940, symBinAddr: 0x10000A810, symSize: 0x34 }
  - { offsetInCU: 0x1368C, offset: 0x1368C, size: 0x8, addend: 0x0, symName: __ZNSt3__111__wrap_iterIPhEC1B7v160006EPKvS1_, symObjAddr: 0x7974, symBinAddr: 0x10000A844, symSize: 0x3C }
  - { offsetInCU: 0x136D2, offset: 0x136D2, size: 0x8, addend: 0x0, symName: __ZNSt3__111__wrap_iterIPhEC2B7v160006EPKvS1_, symObjAddr: 0x79B0, symBinAddr: 0x10000A880, symSize: 0x24 }
  - { offsetInCU: 0x1373C, offset: 0x1373C, size: 0x8, addend: 0x0, symName: __ZNKSt3__114__copy_trivialclB7v160006IhhLi0EEENS_4pairIPT_PT0_EES4_S4_S6_, symObjAddr: 0x7BB8, symBinAddr: 0x10000AA88, symSize: 0x48 }
  - { offsetInCU: 0x137AA, offset: 0x137AA, size: 0x8, addend: 0x0, symName: __ZNSt3__14pairIPhS1_EC1B7v160006IS1_S1_LPv0EEEOT_OT0_, symObjAddr: 0x7D38, symBinAddr: 0x10000AC08, symSize: 0x3C }
  - { offsetInCU: 0x13808, offset: 0x13808, size: 0x8, addend: 0x0, symName: __ZNSt3__14pairIPhS1_EC2B7v160006IS1_S1_LPv0EEEOT_OT0_, symObjAddr: 0x7D74, symBinAddr: 0x10000AC44, symSize: 0x34 }
  - { offsetInCU: 0x13866, offset: 0x13866, size: 0x8, addend: 0x0, symName: __ZNSt3__118__unwrap_iter_implINS_11__wrap_iterIPhEELb1EE8__unwrapB7v160006ES3_, symObjAddr: 0x7DA8, symBinAddr: 0x10000AC78, symSize: 0x28 }
  - { offsetInCU: 0x13893, offset: 0x13893, size: 0x8, addend: 0x0, symName: __ZNSt3__119__to_address_helperINS_11__wrap_iterIPhEEvE6__callB7v160006ERKS3_, symObjAddr: 0x7DF4, symBinAddr: 0x10000ACC4, symSize: 0x30 }
  - { offsetInCU: 0x138B6, offset: 0x138B6, size: 0x8, addend: 0x0, symName: __ZNSt3__114pointer_traitsINS_11__wrap_iterIPhEEE10to_addressB7v160006ES3_, symObjAddr: 0x7E24, symBinAddr: 0x10000ACF4, symSize: 0x2C }
  - { offsetInCU: 0x138DA, offset: 0x138DA, size: 0x8, addend: 0x0, symName: __ZNKSt3__111__wrap_iterIPhE4baseB7v160006Ev, symObjAddr: 0x7E50, symBinAddr: 0x10000AD20, symSize: 0x18 }
  - { offsetInCU: 0x13900, offset: 0x13900, size: 0x8, addend: 0x0, symName: __ZNSt3__14pairIPhS1_EC1B7v160006IRS1_S1_LPv0EEEOT_OT0_, symObjAddr: 0x7F1C, symBinAddr: 0x10000ADEC, symSize: 0x3C }
  - { offsetInCU: 0x1395E, offset: 0x1395E, size: 0x8, addend: 0x0, symName: __ZNSt3__14pairIPhS1_EC2B7v160006IRS1_S1_LPv0EEEOT_OT0_, symObjAddr: 0x7F58, symBinAddr: 0x10000AE28, symSize: 0x34 }
  - { offsetInCU: 0x139BC, offset: 0x139BC, size: 0x8, addend: 0x0, symName: __ZNSt3__118__unwrap_iter_implIPhLb1EE8__unwrapB7v160006ES1_, symObjAddr: 0x7F8C, symBinAddr: 0x10000AE5C, symSize: 0x24 }
  - { offsetInCU: 0x139FF, offset: 0x139FF, size: 0x8, addend: 0x0, symName: __ZNSt3__14pairINS_11__wrap_iterIPhEES2_EC1B7v160006IS3_S2_LPv0EEEOT_OT0_, symObjAddr: 0x7FB0, symBinAddr: 0x10000AE80, symSize: 0x3C }
  - { offsetInCU: 0x13A5D, offset: 0x13A5D, size: 0x8, addend: 0x0, symName: __ZNSt3__14pairINS_11__wrap_iterIPhEES2_EC2B7v160006IS3_S2_LPv0EEEOT_OT0_, symObjAddr: 0x7FEC, symBinAddr: 0x10000AEBC, symSize: 0x34 }
  - { offsetInCU: 0x13ABB, offset: 0x13ABB, size: 0x8, addend: 0x0, symName: __ZNSt3__118__unwrap_iter_implINS_11__wrap_iterIPhEELb1EE8__rewrapB7v160006ES3_S2_, symObjAddr: 0x806C, symBinAddr: 0x10000AF3C, symSize: 0x54 }
  - { offsetInCU: 0x13AEC, offset: 0x13AEC, size: 0x8, addend: 0x0, symName: __ZNKSt3__111__wrap_iterIPhEplB7v160006El, symObjAddr: 0x80C0, symBinAddr: 0x10000AF90, symSize: 0x3C }
  - { offsetInCU: 0x13B2E, offset: 0x13B2E, size: 0x8, addend: 0x0, symName: __ZNSt3__111__wrap_iterIPhEpLB7v160006El, symObjAddr: 0x80FC, symBinAddr: 0x10000AFCC, symSize: 0x28 }
  - { offsetInCU: 0x13B62, offset: 0x13B62, size: 0x8, addend: 0x0, symName: __ZNSt3__118__unwrap_iter_implIPhLb1EE8__rewrapB7v160006ES1_S1_, symObjAddr: 0x8124, symBinAddr: 0x10000AFF4, symSize: 0x48 }
  - { offsetInCU: 0x13B93, offset: 0x13B93, size: 0x8, addend: 0x0, symName: __ZNSt3__113basic_ostreamIcNS_11char_traitsIcEEEC2B7v160006EPNS_15basic_streambufIcS2_EE, symObjAddr: 0x816C, symBinAddr: 0x10000B03C, symSize: 0x60 }
  - { offsetInCU: 0x13BD8, offset: 0x13BD8, size: 0x8, addend: 0x0, symName: __ZNSt3__115basic_stringbufIcNS_11char_traitsIcEENS_9allocatorIcEEEC1B7v160006Ej, symObjAddr: 0x81CC, symBinAddr: 0x10000B09C, symSize: 0x34 }
  - { offsetInCU: 0x13C10, offset: 0x13C10, size: 0x8, addend: 0x0, symName: __ZNSt3__115basic_stringbufIcNS_11char_traitsIcEENS_9allocatorIcEEEC2B7v160006Ej, symObjAddr: 0x8200, symBinAddr: 0x10000B0D0, symSize: 0x60 }
...
