---
triple:          'arm64-apple-darwin'
binary-path:     '/Users/yordanstoilov/Desktop/headrush/Coding/C_preparation/CPP-OOP/04.OopConstructors/Order/build/OrderMain'
relocations:
  - { offsetInCU: 0x4AA8, offset: 0x4AA8, size: 0x8, addend: 0x0, symName: __ZNSt3__111__introsortINS_17_ClassicAlgPolicyER10ComparatorPPK7CompanyEEvT1_S8_T0_NS_15iterator_traitsIS8_E15difference_typeE, symObjAddr: 0x28FC, symBinAddr: 0x100003D88, symSize: 0x708 }
  - { offsetInCU: 0x4C03, offset: 0x4C03, size: 0x8, addend: 0x0, symName: __ZNSt3__118__insertion_sort_3B7v160006INS_17_ClassicAlgPolicyER10ComparatorPPK7CompanyEEvT1_S8_T0_, symObjAddr: 0x3184, symBinAddr: 0x100004610, symSize: 0x150 }
  - { offsetInCU: 0x4CD6, offset: 0x4CD6, size: 0x8, addend: 0x0, symName: __ZNSt3__111__sift_downB7v160006INS_17_ClassicAlgPolicyER10ComparatorPPK7CompanyEEvT1_OT0_NS_15iterator_traitsIS8_E15difference_typeES8_, symObjAddr: 0x3BF0, symBinAddr: 0x10000507C, symSize: 0x220 }
  - { offsetInCU: 0x4D83, offset: 0x4D83, size: 0x8, addend: 0x0, symName: __ZNSt3__117__floyd_sift_downB7v160006INS_17_ClassicAlgPolicyER10ComparatorPPK7CompanyEET1_S8_OT0_NS_15iterator_traitsIS8_E15difference_typeE, symObjAddr: 0x3F94, symBinAddr: 0x100005420, symSize: 0x104 }
  - { offsetInCU: 0x4E1B, offset: 0x4E1B, size: 0x8, addend: 0x0, symName: __ZNSt3__127__insertion_sort_incompleteIR10ComparatorPPK7CompanyEEbT0_S7_T_, symObjAddr: 0x3528, symBinAddr: 0x1000049B4, symSize: 0x324 }
  - { offsetInCU: 0x54B9, offset: 0x54B9, size: 0x8, addend: 0x0, symName: __ZNSt3__124__put_character_sequenceB7v160006IcNS_11char_traitsIcEEEERNS_13basic_ostreamIT_T0_EES7_PKS4_m, symObjAddr: 0x4CC0, symBinAddr: 0x10000614C, symSize: 0x1EC }
  - { offsetInCU: 0x6D6D, offset: 0x6D6D, size: 0x8, addend: 0x0, symName: __ZNSt3__1rsB7v160006IcNS_11char_traitsIcEENS_9allocatorIcEEEERNS_13basic_istreamIT_T0_EES9_RNS_12basic_stringIS6_S7_T1_EE, symObjAddr: 0x38, symBinAddr: 0x1000014C4, symSize: 0x31C }
  - { offsetInCU: 0x6E3C, offset: 0x6E3C, size: 0x8, addend: 0x0, symName: __ZNSt3__1lsB7v160006INS_11char_traitsIcEEEERNS_13basic_ostreamIcT_EES6_PKc, symObjAddr: 0x408, symBinAddr: 0x100001894, symSize: 0x48 }
  - { offsetInCU: 0x6E82, offset: 0x6E82, size: 0x8, addend: 0x0, symName: __ZNSt3__1lsB7v160006IcNS_11char_traitsIcEENS_9allocatorIcEEEERNS_13basic_ostreamIT_T0_EES9_RKNS_12basic_stringIS6_S7_T1_EE, symObjAddr: 0x450, symBinAddr: 0x1000018DC, symSize: 0x4C }
  - { offsetInCU: 0x6EDA, offset: 0x6EDA, size: 0x8, addend: 0x0, symName: __ZNSt3__17getlineB7v160006IcNS_11char_traitsIcEENS_9allocatorIcEEEERNS_13basic_istreamIT_T0_EES9_RNS_12basic_stringIS6_S7_T1_EE, symObjAddr: 0x7BC, symBinAddr: 0x100001C48, symSize: 0x5C }
  - { offsetInCU: 0x6F32, offset: 0x6F32, size: 0x8, addend: 0x0, symName: __ZNSt3__1neB7v160006IcNS_11char_traitsIcEENS_9allocatorIcEEEEbRKNS_12basic_stringIT_T0_T1_EEPKS6_, symObjAddr: 0x844, symBinAddr: 0x100001CD0, symSize: 0x34 }
  - { offsetInCU: 0x786D, offset: 0x786D, size: 0x8, addend: 0x0, symName: __ZNSt3__1neB7v160006IPPK7CompanyEEbRKNS_11__wrap_iterIT_EES9_, symObjAddr: 0xAA4, symBinAddr: 0x100001F30, symSize: 0x34 }
  - { offsetInCU: 0x78B0, offset: 0x78B0, size: 0x8, addend: 0x0, symName: __ZNSt3__14endlB7v160006IcNS_11char_traitsIcEEEERNS_13basic_ostreamIT_T0_EES7_, symObjAddr: 0xB1C, symBinAddr: 0x100001FA8, symSize: 0x58 }
  - { offsetInCU: 0x78F0, offset: 0x78F0, size: 0x8, addend: 0x0, symName: __ZNSt3__14sortB7v160006INS_11__wrap_iterIPPK7CompanyEE10ComparatorEEvT_S8_T0_, symObjAddr: 0xCA4, symBinAddr: 0x100002130, symSize: 0x40 }
  - { offsetInCU: 0x794A, offset: 0x794A, size: 0x8, addend: 0x0, symName: __ZNSt3__112__to_addressB7v160006IPK7CompanyEEPT_S5_, symObjAddr: 0xF44, symBinAddr: 0x1000023D0, symSize: 0x14 }
  - { offsetInCU: 0x797F, offset: 0x797F, size: 0x8, addend: 0x0, symName: __ZNSt3__13maxB7v160006ImEERKT_S3_S3_, symObjAddr: 0x1368, symBinAddr: 0x1000027F4, symSize: 0x2C }
  - { offsetInCU: 0x79C2, offset: 0x79C2, size: 0x8, addend: 0x0, symName: __ZNSt3__13minB7v160006ImEERKT_S3_S3_, symObjAddr: 0x1394, symBinAddr: 0x100002820, symSize: 0x2C }
  - { offsetInCU: 0x7BEF, offset: 0x7BEF, size: 0x8, addend: 0x0, symName: __ZNSt3__13minB7v160006ImNS_6__lessImmEEEERKT_S5_S5_T0_, symObjAddr: 0x142C, symBinAddr: 0x1000028B8, symSize: 0x54 }
  - { offsetInCU: 0x7C84, offset: 0x7C84, size: 0x8, addend: 0x0, symName: __ZNSt3__120__throw_length_errorB7v160006EPKc, symObjAddr: 0x1508, symBinAddr: 0x100002994, symSize: 0x64 }
  - { offsetInCU: 0x7CAC, offset: 0x7CAC, size: 0x8, addend: 0x0, symName: __ZNSt3__13maxB7v160006ImNS_6__lessImmEEEERKT_S5_S5_T0_, symObjAddr: 0x164C, symBinAddr: 0x100002AD8, symSize: 0x54 }
  - { offsetInCU: 0x7D06, offset: 0x7D06, size: 0x8, addend: 0x0, symName: __ZNSt3__119__allocate_at_leastB7v160006INS_9allocatorIPK7CompanyEEEENS_19__allocation_resultINS_16allocator_traitsIT_E7pointerEEERS8_m, symObjAddr: 0x17B0, symBinAddr: 0x100002C3C, symSize: 0x40 }
  - { offsetInCU: 0x7D49, offset: 0x7D49, size: 0x8, addend: 0x0, symName: __ZNSt3__117__libcpp_allocateB7v160006Emm, symObjAddr: 0x1950, symBinAddr: 0x100002DDC, symSize: 0x60 }
  - { offsetInCU: 0x7DA3, offset: 0x7DA3, size: 0x8, addend: 0x0, symName: __ZNSt3__124__is_overaligned_for_newB7v160006Em, symObjAddr: 0x19B0, symBinAddr: 0x100002E3C, symSize: 0x20 }
  - { offsetInCU: 0x7DD1, offset: 0x7DD1, size: 0x8, addend: 0x0, symName: __ZNSt3__121__libcpp_operator_newB7v160006IJmSt11align_val_tEEEPvDpT_, symObjAddr: 0x19D0, symBinAddr: 0x100002E5C, symSize: 0x2C }
  - { offsetInCU: 0x7E1E, offset: 0x7E1E, size: 0x8, addend: 0x0, symName: __ZNSt3__121__libcpp_operator_newB7v160006IJmEEEPvDpT_, symObjAddr: 0x19FC, symBinAddr: 0x100002E88, symSize: 0x24 }
  - { offsetInCU: 0x7E57, offset: 0x7E57, size: 0x8, addend: 0x0, symName: __ZNSt3__142__uninitialized_allocator_move_if_noexceptB7v160006INS_9allocatorIPK7CompanyEENS_16reverse_iteratorIPS4_EES8_S4_vEET1_RT_T0_SC_S9_, symObjAddr: 0x1B3C, symBinAddr: 0x100002FC8, symSize: 0x78 }
  - { offsetInCU: 0x7ED4, offset: 0x7ED4, size: 0x8, addend: 0x0, symName: __ZNSt3__14swapB7v160006IPPK7CompanyEENS_9enable_ifIXaasr21is_move_constructibleIT_EE5valuesr18is_move_assignableIS6_EE5valueEvE4typeERS6_S9_, symObjAddr: 0x1C00, symBinAddr: 0x10000308C, symSize: 0x3C }
  - { offsetInCU: 0x7F25, offset: 0x7F25, size: 0x8, addend: 0x0, symName: __ZNSt3__125__debug_db_invalidate_allB7v160006INS_6vectorIPK7CompanyNS_9allocatorIS4_EEEEEEvPT_, symObjAddr: 0x1CE8, symBinAddr: 0x100003174, symSize: 0x10 }
  - { offsetInCU: 0x7F56, offset: 0x7F56, size: 0x8, addend: 0x0, symName: __ZNSt3__14moveB7v160006INS_16reverse_iteratorIPPK7CompanyEES6_EET0_T_S8_S7_, symObjAddr: 0x1D40, symBinAddr: 0x1000031CC, symSize: 0x78 }
  - { offsetInCU: 0x7FB0, offset: 0x7FB0, size: 0x8, addend: 0x0, symName: __ZNSt3__16__moveB7v160006INS_17_ClassicAlgPolicyENS_16reverse_iteratorIPPK7CompanyEES7_S7_EENS_4pairIT0_T2_EES9_T1_SA_, symObjAddr: 0x1DB8, symBinAddr: 0x100003244, symSize: 0x64 }
  - { offsetInCU: 0x801C, offset: 0x801C, size: 0x8, addend: 0x0, symName: __ZNSt3__123__dispatch_copy_or_moveB7v160006INS_17_ClassicAlgPolicyENS_11__move_loopIS1_EENS_14__move_trivialENS_16reverse_iteratorIPPK7CompanyEESA_SA_EENS_4pairIT2_T4_EESC_T3_SD_, symObjAddr: 0x1E1C, symBinAddr: 0x1000032A8, symSize: 0x64 }
  - { offsetInCU: 0x809A, offset: 0x809A, size: 0x8, addend: 0x0, symName: __ZNSt3__121__unwrap_and_dispatchB7v160006INS_10__overloadINS_11__move_loopINS_17_ClassicAlgPolicyEEENS_14__move_trivialEEENS_16reverse_iteratorIPPK7CompanyEESC_SC_Li0EEENS_4pairIT0_T2_EESE_T1_SF_, symObjAddr: 0x1E80, symBinAddr: 0x10000330C, symSize: 0x12C }
  - { offsetInCU: 0x812A, offset: 0x812A, size: 0x8, addend: 0x0, symName: __ZNSt3__114__unwrap_rangeB7v160006INS_16reverse_iteratorIPPK7CompanyEES6_EENS_4pairIT0_S8_EET_SA_, symObjAddr: 0x1FAC, symBinAddr: 0x100003438, symSize: 0x84 }
  - { offsetInCU: 0x82A5, offset: 0x82A5, size: 0x8, addend: 0x0, symName: __ZNSt3__113__unwrap_iterB7v160006INS_16reverse_iteratorIPPK7CompanyEENS_18__unwrap_iter_implIS6_Lb0EEELi0EEEDTclsrT0_8__unwrapclsr3stdE7declvalIT_EEEESA_, symObjAddr: 0x20D0, symBinAddr: 0x10000355C, symSize: 0x44 }
  - { offsetInCU: 0x82E9, offset: 0x82E9, size: 0x8, addend: 0x0, symName: __ZNSt3__19make_pairB7v160006INS_16reverse_iteratorIPPK7CompanyEES6_EENS_4pairINS_18__unwrap_ref_decayIT_E4typeENS8_IT0_E4typeEEEOS9_OSC_, symObjAddr: 0x2114, symBinAddr: 0x1000035A0, symSize: 0x38 }
  - { offsetInCU: 0x8338, offset: 0x8338, size: 0x8, addend: 0x0, symName: __ZNSt3__114__rewrap_rangeB7v160006INS_16reverse_iteratorIPPK7CompanyEES6_EET_S7_T0_, symObjAddr: 0x214C, symBinAddr: 0x1000035D8, symSize: 0x5C }
  - { offsetInCU: 0x8384, offset: 0x8384, size: 0x8, addend: 0x0, symName: __ZNSt3__113__rewrap_iterB7v160006INS_16reverse_iteratorIPPK7CompanyEES6_NS_18__unwrap_iter_implIS6_Lb0EEEEET_S9_T0_, symObjAddr: 0x21A8, symBinAddr: 0x100003634, symSize: 0x74 }
  - { offsetInCU: 0x83D9, offset: 0x83D9, size: 0x8, addend: 0x0, symName: __ZNSt3__1neB7v160006IPPK7CompanyS4_EEbRKNS_16reverse_iteratorIT_EERKNS5_IT0_EE, symObjAddr: 0x221C, symBinAddr: 0x1000036A8, symSize: 0x48 }
  - { offsetInCU: 0x8555, offset: 0x8555, size: 0x8, addend: 0x0, symName: __ZNSt3__119__libcpp_deallocateB7v160006EPvmm, symObjAddr: 0x2614, symBinAddr: 0x100003AA0, symSize: 0x60 }
  - { offsetInCU: 0x85BA, offset: 0x85BA, size: 0x8, addend: 0x0, symName: __ZNSt3__127__do_deallocate_handle_sizeB7v160006IJSt11align_val_tEEEvPvmDpT_, symObjAddr: 0x2674, symBinAddr: 0x100003B00, symSize: 0x30 }
  - { offsetInCU: 0x860D, offset: 0x860D, size: 0x8, addend: 0x0, symName: __ZNSt3__127__do_deallocate_handle_sizeB7v160006IJEEEvPvmDpT_, symObjAddr: 0x26A4, symBinAddr: 0x100003B30, symSize: 0x28 }
  - { offsetInCU: 0x864B, offset: 0x864B, size: 0x8, addend: 0x0, symName: __ZNSt3__124__libcpp_operator_deleteB7v160006IJPvSt11align_val_tEEEvDpT_, symObjAddr: 0x26CC, symBinAddr: 0x100003B58, symSize: 0x2C }
  - { offsetInCU: 0x8694, offset: 0x8694, size: 0x8, addend: 0x0, symName: __ZNSt3__124__libcpp_operator_deleteB7v160006IJPvEEEvDpT_, symObjAddr: 0x26F8, symBinAddr: 0x100003B84, symSize: 0x24 }
  - { offsetInCU: 0x86C9, offset: 0x86C9, size: 0x8, addend: 0x0, symName: __ZNSt3__111__sort_implB7v160006INS_17_ClassicAlgPolicyENS_11__wrap_iterIPPK7CompanyEE10ComparatorEEvT0_S9_RT1_, symObjAddr: 0x2768, symBinAddr: 0x100003BF4, symSize: 0x84 }
  - { offsetInCU: 0x8770, offset: 0x8770, size: 0x8, addend: 0x0, symName: __ZNSt3__123__debug_randomize_rangeB7v160006INS_17_ClassicAlgPolicyENS_11__wrap_iterIPPK7CompanyEES7_EEvT0_T1_, symObjAddr: 0x27EC, symBinAddr: 0x100003C78, symSize: 0x14 }
  - { offsetInCU: 0x87C1, offset: 0x87C1, size: 0x8, addend: 0x0, symName: __ZNSt3__16__sortIR10ComparatorPPK7CompanyEEvT0_S7_T_, symObjAddr: 0x2800, symBinAddr: 0x100003C8C, symSize: 0x68 }
  - { offsetInCU: 0x8851, offset: 0x8851, size: 0x8, addend: 0x0, symName: __ZNSt3__113__unwrap_iterB7v160006INS_11__wrap_iterIPPK7CompanyEENS_18__unwrap_iter_implIS6_Lb1EEELi0EEEDTclsrT0_8__unwrapclsr3stdE7declvalIT_EEEESA_, symObjAddr: 0x2868, symBinAddr: 0x100003CF4, symSize: 0x2C }
  - { offsetInCU: 0x8895, offset: 0x8895, size: 0x8, addend: 0x0, symName: __ZNSt3__17__log2iB7v160006IlEET_S1_, symObjAddr: 0x2894, symBinAddr: 0x100003D20, symSize: 0x54 }
  - { offsetInCU: 0x88FF, offset: 0x88FF, size: 0x8, addend: 0x0, symName: __ZNSt3__112__libcpp_clzB7v160006Em, symObjAddr: 0x301C, symBinAddr: 0x1000044A8, symSize: 0x1C }
  - { offsetInCU: 0x892B, offset: 0x892B, size: 0x8, addend: 0x0, symName: __ZNSt3__124__sort3_maybe_branchlessB7v160006INS_17_ClassicAlgPolicyER10ComparatorPPK7CompanyEENS_9enable_ifIXntsr21__use_branchless_sortIT0_T1_EE5valueEvE4typeESA_SA_SA_S9_, symObjAddr: 0x30B8, symBinAddr: 0x100004544, symSize: 0x3C }
  - { offsetInCU: 0x899C, offset: 0x899C, size: 0x8, addend: 0x0, symName: __ZNSt3__124__sort4_maybe_branchlessB7v160006INS_17_ClassicAlgPolicyER10ComparatorPPK7CompanyEENS_9enable_ifIXntsr21__use_branchless_sortIT0_T1_EE5valueEvE4typeESA_SA_SA_SA_S9_, symObjAddr: 0x30F4, symBinAddr: 0x100004580, symSize: 0x44 }
  - { offsetInCU: 0x8A21, offset: 0x8A21, size: 0x8, addend: 0x0, symName: __ZNSt3__124__sort5_maybe_branchlessB7v160006INS_17_ClassicAlgPolicyER10ComparatorPPK7CompanyEENS_9enable_ifIXntsr21__use_branchless_sortIT0_T1_EE5valueEvE4typeESA_SA_SA_SA_SA_S9_, symObjAddr: 0x3138, symBinAddr: 0x1000045C4, symSize: 0x4C }
  - { offsetInCU: 0x8AB5, offset: 0x8AB5, size: 0x8, addend: 0x0, symName: __ZNSt3__114__partial_sortB7v160006INS_17_ClassicAlgPolicyER10ComparatorPPK7CompanyS7_EET1_S8_S8_T2_RT0_, symObjAddr: 0x32D4, symBinAddr: 0x100004760, symSize: 0x94 }
  - { offsetInCU: 0x8B3D, offset: 0x8B3D, size: 0x8, addend: 0x0, symName: __ZNSt3__119__sort5_wrap_policyB7v160006INS_17_ClassicAlgPolicyER10ComparatorPPK7CompanyEEjT1_S8_S8_S8_S8_T0_, symObjAddr: 0x3368, symBinAddr: 0x1000047F4, symSize: 0x54 }
  - { offsetInCU: 0x8BE3, offset: 0x8BE3, size: 0x8, addend: 0x0, symName: __ZNSt3__17__sort3B7v160006INS_17_ClassicAlgPolicyER10ComparatorPPK7CompanyEEjT1_S8_S8_T0_, symObjAddr: 0x33BC, symBinAddr: 0x100004848, symSize: 0x16C }
  - { offsetInCU: 0x8C62, offset: 0x8C62, size: 0x8, addend: 0x0, symName: __ZNSt3__19iter_swapB7v160006IPPK7CompanyS4_EEvT_T0_, symObjAddr: 0x3864, symBinAddr: 0x100004CF0, symSize: 0x2C }
  - { offsetInCU: 0x8CAA, offset: 0x8CAA, size: 0x8, addend: 0x0, symName: __ZNSt3__14swapB7v160006IPK7CompanyEENS_9enable_ifIXaasr21is_move_constructibleIT_EE5valuesr18is_move_assignableIS5_EE5valueEvE4typeERS5_S8_, symObjAddr: 0x3890, symBinAddr: 0x100004D1C, symSize: 0x3C }
  - { offsetInCU: 0x8CFB, offset: 0x8CFB, size: 0x8, addend: 0x0, symName: __ZNSt3__17__sort4B7v160006INS_17_ClassicAlgPolicyER10ComparatorPPK7CompanyEEjT1_S8_S8_S8_T0_, symObjAddr: 0x38CC, symBinAddr: 0x100004D58, symSize: 0xFC }
  - { offsetInCU: 0x8D88, offset: 0x8D88, size: 0x8, addend: 0x0, symName: __ZNSt3__123__debug_randomize_rangeB7v160006INS_17_ClassicAlgPolicyEPPK7CompanyS5_EEvT0_T1_, symObjAddr: 0x3A0C, symBinAddr: 0x100004E98, symSize: 0x14 }
  - { offsetInCU: 0x8DD9, offset: 0x8DD9, size: 0x8, addend: 0x0, symName: __ZNSt3__119__partial_sort_implB7v160006INS_17_ClassicAlgPolicyER10ComparatorPPK7CompanyS7_EET1_S8_S8_T2_OT0_, symObjAddr: 0x3A20, symBinAddr: 0x100004EAC, symSize: 0x118 }
  - { offsetInCU: 0x8E6F, offset: 0x8E6F, size: 0x8, addend: 0x0, symName: __ZNSt3__111__make_heapB7v160006INS_17_ClassicAlgPolicyER10ComparatorPPK7CompanyEEvT1_S8_OT0_, symObjAddr: 0x3B38, symBinAddr: 0x100004FC4, symSize: 0xB8 }
  - { offsetInCU: 0x8F11, offset: 0x8F11, size: 0x8, addend: 0x0, symName: __ZNSt3__111__sort_heapB7v160006INS_17_ClassicAlgPolicyER10ComparatorPPK7CompanyEEvT1_S8_OT0_, symObjAddr: 0x3E10, symBinAddr: 0x10000529C, symSize: 0x90 }
  - { offsetInCU: 0x8FA5, offset: 0x8FA5, size: 0x8, addend: 0x0, symName: __ZNSt3__110__pop_heapB7v160006INS_17_ClassicAlgPolicyE10ComparatorPPK7CompanyEEvT1_S7_RT0_NS_15iterator_traitsIS7_E15difference_typeE, symObjAddr: 0x3EA0, symBinAddr: 0x10000532C, symSize: 0xF4 }
  - { offsetInCU: 0x9055, offset: 0x9055, size: 0x8, addend: 0x0, symName: __ZNSt3__19__sift_upB7v160006INS_17_ClassicAlgPolicyER10ComparatorPPK7CompanyEEvT1_S8_OT0_NS_15iterator_traitsIS8_E15difference_typeE, symObjAddr: 0x4098, symBinAddr: 0x100005524, symSize: 0x128 }
  - { offsetInCU: 0x9105, offset: 0x9105, size: 0x8, addend: 0x0, symName: __ZNSt3__17__sort5IR10ComparatorPPK7CompanyEEjT0_S7_S7_S7_S7_T_, symObjAddr: 0x41C0, symBinAddr: 0x10000564C, symSize: 0x14C }
  - { offsetInCU: 0x9203, offset: 0x9203, size: 0x8, addend: 0x0, symName: __ZNSt3__112__to_addressB7v160006INS_11__wrap_iterIPPK7CompanyEEvEENS_5decayIDTclsr19__to_address_helperIT_EE6__callclsr3stdE7declvalIRKS8_EEEEE4typeESA_, symObjAddr: 0x4334, symBinAddr: 0x1000057C0, symSize: 0x24 }
  - { offsetInCU: 0x92E2, offset: 0x92E2, size: 0x8, addend: 0x0, symName: __ZNSt3__1eqB7v160006IPPK7CompanyEEbRKNS_11__wrap_iterIT_EES9_, symObjAddr: 0x44CC, symBinAddr: 0x100005958, symSize: 0x48 }
  - { offsetInCU: 0x9325, offset: 0x9325, size: 0x8, addend: 0x0, symName: __ZNSt3__19use_facetB7v160006INS_5ctypeIcEEEERKT_RKNS_6localeE, symObjAddr: 0x46A8, symBinAddr: 0x100005B34, symSize: 0x2C }
  - { offsetInCU: 0x9705, offset: 0x9705, size: 0x8, addend: 0x0, symName: __ZNSt3__125__debug_db_invalidate_allB7v160006INS_12basic_stringIcNS_11char_traitsIcEENS_9allocatorIcEEEEEEvPT_, symObjAddr: 0x4984, symBinAddr: 0x100005E10, symSize: 0x10 }
  - { offsetInCU: 0x9955, offset: 0x9955, size: 0x8, addend: 0x0, symName: __ZNSt3__116__pad_and_outputB7v160006IcNS_11char_traitsIcEEEENS_19ostreambuf_iteratorIT_T0_EES6_PKS4_S8_S8_RNS_8ios_baseES4_, symObjAddr: 0x4F44, symBinAddr: 0x1000063D0, symSize: 0x240 }
  - { offsetInCU: 0x9A24, offset: 0x9A24, size: 0x8, addend: 0x0, symName: __ZNSt3__119__debug_db_insert_cB7v160006INS_12basic_stringIcNS_11char_traitsIcEENS_9allocatorIcEEEEEEvPT_, symObjAddr: 0x5388, symBinAddr: 0x100006814, symSize: 0x10 }
  - { offsetInCU: 0x9A55, offset: 0x9A55, size: 0x8, addend: 0x0, symName: __ZNSt3__112__to_addressB7v160006IcEEPT_S2_, symObjAddr: 0x5454, symBinAddr: 0x1000068E0, symSize: 0x14 }
  - { offsetInCU: 0x9A8A, offset: 0x9A8A, size: 0x8, addend: 0x0, symName: __ZNSt3__112__to_addressB7v160006IKcEEPT_S3_, symObjAddr: 0x55CC, symBinAddr: 0x100006A58, symSize: 0x14 }
  - { offsetInCU: 0x9AF2, offset: 0x9AF2, size: 0x8, addend: 0x0, symName: __ZNSt3__118__constexpr_strlenB7v160006EPKc, symObjAddr: 0x5728, symBinAddr: 0x100006BB4, symSize: 0x24 }
  - { offsetInCU: 0x9B1E, offset: 0x9B1E, size: 0x8, addend: 0x0, symName: __ZNSt3__119__debug_db_insert_cB7v160006INS_6vectorIPK7CompanyNS_9allocatorIS4_EEEEEEvPT_, symObjAddr: 0x5874, symBinAddr: 0x100006D00, symSize: 0x10 }
  - { offsetInCU: 0x9B4F, offset: 0x9B4F, size: 0x8, addend: 0x0, symName: __ZNSt3__118__debug_db_erase_cB7v160006INS_6vectorIPK7CompanyNS_9allocatorIS4_EEEEEEvPT_, symObjAddr: 0x5A64, symBinAddr: 0x100006EF0, symSize: 0x10 }
  - { offsetInCU: 0x9B80, offset: 0x9B80, size: 0x8, addend: 0x0, symName: __ZNSt3__17getlineB7v160006IcNS_11char_traitsIcEENS_9allocatorIcEEEERNS_13basic_istreamIT_T0_EES9_RNS_12basic_stringIS6_S7_T1_EES6_, symObjAddr: 0x5BB8, symBinAddr: 0x100007044, symSize: 0x234 }
  - { offsetInCU: 0x9C3E, offset: 0x9C3E, size: 0x8, addend: 0x0, symName: __ZNSt3__1eqB7v160006IcNS_11char_traitsIcEENS_9allocatorIcEEEEbRKNS_12basic_stringIT_T0_T1_EEPKS6_, symObjAddr: 0x5E14, symBinAddr: 0x1000072A0, symSize: 0xAC }
  - { offsetInCU: 0x9FB0, offset: 0x9FB0, size: 0x8, addend: 0x0, symName: __ZSt28__throw_bad_array_new_lengthB7v160006v, symObjAddr: 0x191C, symBinAddr: 0x100002DA8, symSize: 0x34 }
  - { offsetInCU: 0xA4D8, offset: 0xA4D8, size: 0x8, addend: 0x0, symName: __ZNSt3__16vectorIPK7CompanyNS_9allocatorIS3_EEE26__swap_out_circular_bufferERNS_14__split_bufferIS3_RS5_EE, symObjAddr: 0x1168, symBinAddr: 0x1000025F4, symSize: 0x118 }
  - { offsetInCU: 0xC868, offset: 0xC868, size: 0x8, addend: 0x0, symName: __ZrsRNSt3__113basic_istreamIcNS_11char_traitsIcEEEER7Company, symObjAddr: 0x0, symBinAddr: 0x10000148C, symSize: 0x38 }
  - { offsetInCU: 0xC8A2, offset: 0xC8A2, size: 0x8, addend: 0x0, symName: __ZlsRNSt3__113basic_ostreamIcNS_11char_traitsIcEEEERK7Company, symObjAddr: 0x354, symBinAddr: 0x1000017E0, symSize: 0xB4 }
  - { offsetInCU: 0xC8DD, offset: 0xC8DD, size: 0x8, addend: 0x0, symName: __ZNK7Company7getNameEv, symObjAddr: 0x49C, symBinAddr: 0x100001928, symSize: 0x38 }
  - { offsetInCU: 0xC903, offset: 0xC903, size: 0x8, addend: 0x0, symName: __ZNK7Company5getIdEv, symObjAddr: 0x4D4, symBinAddr: 0x100001960, symSize: 0x18 }
  - { offsetInCU: 0xC929, offset: 0xC929, size: 0x8, addend: 0x0, symName: _main, symObjAddr: 0x4EC, symBinAddr: 0x100001978, symSize: 0x244 }
  - { offsetInCU: 0xC9EE, offset: 0xC9EE, size: 0x8, addend: 0x0, symName: __ZNSt3__16vectorIPK7CompanyNS_9allocatorIS3_EEEC1B7v160006Ev, symObjAddr: 0x730, symBinAddr: 0x100001BBC, symSize: 0x2C }
  - { offsetInCU: 0xCA98, offset: 0xCA98, size: 0x8, addend: 0x0, symName: __ZN15OrderedInserterC1ERNSt3__16vectorIPK7CompanyNS0_9allocatorIS4_EEEE, symObjAddr: 0x75C, symBinAddr: 0x100001BE8, symSize: 0x34 }
  - { offsetInCU: 0xCAD0, offset: 0xCAD0, size: 0x8, addend: 0x0, symName: __ZNSt3__112basic_stringIcNS_11char_traitsIcEENS_9allocatorIcEEEC1B7v160006Ev, symObjAddr: 0x790, symBinAddr: 0x100001C1C, symSize: 0x2C }
  - { offsetInCU: 0xCAFA, offset: 0xCAFA, size: 0x8, addend: 0x0, symName: __ZNKSt3__19basic_iosIcNS_11char_traitsIcEEEcvbB7v160006Ev, symObjAddr: 0x818, symBinAddr: 0x100001CA4, symSize: 0x2C }
  - { offsetInCU: 0xCBFE, offset: 0xCBFE, size: 0x8, addend: 0x0, symName: __ZNSt3__119basic_istringstreamIcNS_11char_traitsIcEENS_9allocatorIcEEEC1B7v160006ERKNS_12basic_stringIcS2_S4_EEj, symObjAddr: 0x878, symBinAddr: 0x100001D04, symSize: 0xFC }
  - { offsetInCU: 0xCC4B, offset: 0xCC4B, size: 0x8, addend: 0x0, symName: __ZN7CompanyC1Ev, symObjAddr: 0x974, symBinAddr: 0x100001E00, symSize: 0x2C }
  - { offsetInCU: 0xCC77, offset: 0xCC77, size: 0x8, addend: 0x0, symName: __ZN15OrderedInserter6insertEPK7Company, symObjAddr: 0x9A0, symBinAddr: 0x100001E2C, symSize: 0x64 }
  - { offsetInCU: 0xCCB0, offset: 0xCCB0, size: 0x8, addend: 0x0, symName: __ZNSt3__119basic_istringstreamIcNS_11char_traitsIcEENS_9allocatorIcEEED1Ev, symObjAddr: 0xA04, symBinAddr: 0x100001E90, symSize: 0x40 }
  - { offsetInCU: 0xCCDD, offset: 0xCCDD, size: 0x8, addend: 0x0, symName: __ZNSt3__16vectorIPK7CompanyNS_9allocatorIS3_EEE5beginB7v160006Ev, symObjAddr: 0xA44, symBinAddr: 0x100001ED0, symSize: 0x30 }
  - { offsetInCU: 0xCD05, offset: 0xCD05, size: 0x8, addend: 0x0, symName: __ZNSt3__16vectorIPK7CompanyNS_9allocatorIS3_EEE3endB7v160006Ev, symObjAddr: 0xA74, symBinAddr: 0x100001F00, symSize: 0x30 }
  - { offsetInCU: 0xCD2D, offset: 0xCD2D, size: 0x8, addend: 0x0, symName: __ZNKSt3__111__wrap_iterIPPK7CompanyEdeB7v160006Ev, symObjAddr: 0xAD8, symBinAddr: 0x100001F64, symSize: 0x18 }
  - { offsetInCU: 0xCD53, offset: 0xCD53, size: 0x8, addend: 0x0, symName: __ZNSt3__113basic_ostreamIcNS_11char_traitsIcEEElsB7v160006EPFRS3_S4_E, symObjAddr: 0xAF0, symBinAddr: 0x100001F7C, symSize: 0x2C }
  - { offsetInCU: 0xCD87, offset: 0xCD87, size: 0x8, addend: 0x0, symName: __ZN7CompanyD1Ev, symObjAddr: 0xB74, symBinAddr: 0x100002000, symSize: 0x2C }
  - { offsetInCU: 0xCDB3, offset: 0xCDB3, size: 0x8, addend: 0x0, symName: __ZNSt3__111__wrap_iterIPPK7CompanyEppB7v160006Ev, symObjAddr: 0xBA0, symBinAddr: 0x10000202C, symSize: 0x20 }
  - { offsetInCU: 0xCDD9, offset: 0xCDD9, size: 0x8, addend: 0x0, symName: __ZNSt3__16vectorIPK7CompanyNS_9allocatorIS3_EEED1B7v160006Ev, symObjAddr: 0xBC0, symBinAddr: 0x10000204C, symSize: 0x2C }
  - { offsetInCU: 0xCE03, offset: 0xCE03, size: 0x8, addend: 0x0, symName: __ZN15OrderedInserterC2ERNSt3__16vectorIPK7CompanyNS0_9allocatorIS4_EEEE, symObjAddr: 0xBEC, symBinAddr: 0x100002078, symSize: 0x20 }
  - { offsetInCU: 0xCE3B, offset: 0xCE3B, size: 0x8, addend: 0x0, symName: __ZN7CompanyC2Ev, symObjAddr: 0xC0C, symBinAddr: 0x100002098, symSize: 0x2C }
  - { offsetInCU: 0xCE67, offset: 0xCE67, size: 0x8, addend: 0x0, symName: __ZNSt3__16vectorIPK7CompanyNS_9allocatorIS3_EEE9push_backB7v160006ERKS3_, symObjAddr: 0xC38, symBinAddr: 0x1000020C4, symSize: 0x6C }
  - { offsetInCU: 0xCE9E, offset: 0xCE9E, size: 0x8, addend: 0x0, symName: __ZNSt3__16vectorIPK7CompanyNS_9allocatorIS3_EEE9__end_capB7v160006Ev, symObjAddr: 0xCE4, symBinAddr: 0x100002170, symSize: 0x28 }
  - { offsetInCU: 0xCEC4, offset: 0xCEC4, size: 0x8, addend: 0x0, symName: __ZNSt3__16vectorIPK7CompanyNS_9allocatorIS3_EEE22__construct_one_at_endB7v160006IJRKS3_EEEvDpOT_, symObjAddr: 0xD0C, symBinAddr: 0x100002198, symSize: 0x90 }
  - { offsetInCU: 0xCF13, offset: 0xCF13, size: 0x8, addend: 0x0, symName: __ZNSt3__16vectorIPK7CompanyNS_9allocatorIS3_EEE21__push_back_slow_pathIRKS3_EEvOT_, symObjAddr: 0xD9C, symBinAddr: 0x100002228, symSize: 0xD8 }
  - { offsetInCU: 0xCF71, offset: 0xCF71, size: 0x8, addend: 0x0, symName: __ZNSt3__117__compressed_pairIPPK7CompanyNS_9allocatorIS3_EEE5firstB7v160006Ev, symObjAddr: 0xE74, symBinAddr: 0x100002300, symSize: 0x24 }
  - { offsetInCU: 0xCF97, offset: 0xCF97, size: 0x8, addend: 0x0, symName: __ZNSt3__122__compressed_pair_elemIPPK7CompanyLi0ELb0EE5__getB7v160006Ev, symObjAddr: 0xE98, symBinAddr: 0x100002324, symSize: 0x14 }
  - { offsetInCU: 0xCFD6, offset: 0xCFD6, size: 0x8, addend: 0x0, symName: __ZNSt3__16vectorIPK7CompanyNS_9allocatorIS3_EEE21_ConstructTransactionC1B7v160006ERS6_m, symObjAddr: 0xEAC, symBinAddr: 0x100002338, symSize: 0x3C }
  - { offsetInCU: 0xD01E, offset: 0xD01E, size: 0x8, addend: 0x0, symName: __ZNSt3__116allocator_traitsINS_9allocatorIPK7CompanyEEE9constructB7v160006IS4_JRKS4_EvEEvRS5_PT_DpOT0_, symObjAddr: 0xEE8, symBinAddr: 0x100002374, symSize: 0x34 }
  - { offsetInCU: 0xD075, offset: 0xD075, size: 0x8, addend: 0x0, symName: __ZNSt3__16vectorIPK7CompanyNS_9allocatorIS3_EEE7__allocB7v160006Ev, symObjAddr: 0xF1C, symBinAddr: 0x1000023A8, symSize: 0x28 }
  - { offsetInCU: 0xD09B, offset: 0xD09B, size: 0x8, addend: 0x0, symName: __ZNSt3__16vectorIPK7CompanyNS_9allocatorIS3_EEE21_ConstructTransactionD1B7v160006Ev, symObjAddr: 0xF58, symBinAddr: 0x1000023E4, symSize: 0x2C }
  - { offsetInCU: 0xD0C5, offset: 0xD0C5, size: 0x8, addend: 0x0, symName: __ZNSt3__16vectorIPK7CompanyNS_9allocatorIS3_EEE21_ConstructTransactionC2B7v160006ERS6_m, symObjAddr: 0xF84, symBinAddr: 0x100002410, symSize: 0x44 }
  - { offsetInCU: 0xD10D, offset: 0xD10D, size: 0x8, addend: 0x0, symName: __ZNSt3__19allocatorIPK7CompanyE9constructB7v160006IS3_JRKS3_EEEvPT_DpOT0_, symObjAddr: 0xFC8, symBinAddr: 0x100002454, symSize: 0x28 }
  - { offsetInCU: 0xD163, offset: 0xD163, size: 0x8, addend: 0x0, symName: __ZNSt3__117__compressed_pairIPPK7CompanyNS_9allocatorIS3_EEE6secondB7v160006Ev, symObjAddr: 0xFF0, symBinAddr: 0x10000247C, symSize: 0x24 }
  - { offsetInCU: 0xD189, offset: 0xD189, size: 0x8, addend: 0x0, symName: __ZNSt3__122__compressed_pair_elemINS_9allocatorIPK7CompanyEELi1ELb1EE5__getB7v160006Ev, symObjAddr: 0x1014, symBinAddr: 0x1000024A0, symSize: 0x14 }
  - { offsetInCU: 0xD1AF, offset: 0xD1AF, size: 0x8, addend: 0x0, symName: __ZNSt3__16vectorIPK7CompanyNS_9allocatorIS3_EEE21_ConstructTransactionD2B7v160006Ev, symObjAddr: 0x1028, symBinAddr: 0x1000024B4, symSize: 0x20 }
  - { offsetInCU: 0xD1D9, offset: 0xD1D9, size: 0x8, addend: 0x0, symName: __ZNKSt3__16vectorIPK7CompanyNS_9allocatorIS3_EEE11__recommendB7v160006Em, symObjAddr: 0x1048, symBinAddr: 0x1000024D4, symSize: 0xB4 }
  - { offsetInCU: 0xD22E, offset: 0xD22E, size: 0x8, addend: 0x0, symName: __ZNKSt3__16vectorIPK7CompanyNS_9allocatorIS3_EEE4sizeB7v160006Ev, symObjAddr: 0x10FC, symBinAddr: 0x100002588, symSize: 0x28 }
  - { offsetInCU: 0xD254, offset: 0xD254, size: 0x8, addend: 0x0, symName: __ZNSt3__114__split_bufferIPK7CompanyRNS_9allocatorIS3_EEEC1EmmS6_, symObjAddr: 0x1124, symBinAddr: 0x1000025B0, symSize: 0x44 }
  - { offsetInCU: 0xD2AA, offset: 0xD2AA, size: 0x8, addend: 0x0, symName: __ZNSt3__114__split_bufferIPK7CompanyRNS_9allocatorIS3_EEED1Ev, symObjAddr: 0x1280, symBinAddr: 0x10000270C, symSize: 0x2C }
  - { offsetInCU: 0xD2D6, offset: 0xD2D6, size: 0x8, addend: 0x0, symName: __ZNKSt3__16vectorIPK7CompanyNS_9allocatorIS3_EEE8max_sizeEv, symObjAddr: 0x12AC, symBinAddr: 0x100002738, symSize: 0x60 }
  - { offsetInCU: 0xD2FE, offset: 0xD2FE, size: 0x8, addend: 0x0, symName: __ZNKSt3__16vectorIPK7CompanyNS_9allocatorIS3_EEE20__throw_length_errorB7v160006Ev, symObjAddr: 0x130C, symBinAddr: 0x100002798, symSize: 0x1C }
  - { offsetInCU: 0xD324, offset: 0xD324, size: 0x8, addend: 0x0, symName: __ZNKSt3__16vectorIPK7CompanyNS_9allocatorIS3_EEE8capacityB7v160006Ev, symObjAddr: 0x1328, symBinAddr: 0x1000027B4, symSize: 0x40 }
  - { offsetInCU: 0xD354, offset: 0xD354, size: 0x8, addend: 0x0, symName: __ZNSt3__116allocator_traitsINS_9allocatorIPK7CompanyEEE8max_sizeB7v160006IS5_vEEmRKS5_, symObjAddr: 0x13C0, symBinAddr: 0x10000284C, symSize: 0x24 }
  - { offsetInCU: 0xD382, offset: 0xD382, size: 0x8, addend: 0x0, symName: __ZNKSt3__16vectorIPK7CompanyNS_9allocatorIS3_EEE7__allocB7v160006Ev, symObjAddr: 0x13E4, symBinAddr: 0x100002870, symSize: 0x28 }
  - { offsetInCU: 0xD3A8, offset: 0xD3A8, size: 0x8, addend: 0x0, symName: __ZNSt3__114numeric_limitsIlE3maxB7v160006Ev, symObjAddr: 0x140C, symBinAddr: 0x100002898, symSize: 0x14 }
  - { offsetInCU: 0xD3D0, offset: 0xD3D0, size: 0x8, addend: 0x0, symName: __ZNKSt3__16__lessImmEclB7v160006ERKmS3_, symObjAddr: 0x1480, symBinAddr: 0x10000290C, symSize: 0x34 }
  - { offsetInCU: 0xD412, offset: 0xD412, size: 0x8, addend: 0x0, symName: __ZNKSt3__19allocatorIPK7CompanyE8max_sizeB7v160006Ev, symObjAddr: 0x14B4, symBinAddr: 0x100002940, symSize: 0x14 }
  - { offsetInCU: 0xD438, offset: 0xD438, size: 0x8, addend: 0x0, symName: __ZNKSt3__117__compressed_pairIPPK7CompanyNS_9allocatorIS3_EEE6secondB7v160006Ev, symObjAddr: 0x14C8, symBinAddr: 0x100002954, symSize: 0x24 }
  - { offsetInCU: 0xD45E, offset: 0xD45E, size: 0x8, addend: 0x0, symName: __ZNKSt3__122__compressed_pair_elemINS_9allocatorIPK7CompanyEELi1ELb1EE5__getB7v160006Ev, symObjAddr: 0x14EC, symBinAddr: 0x100002978, symSize: 0x14 }
  - { offsetInCU: 0xD484, offset: 0xD484, size: 0x8, addend: 0x0, symName: __ZNSt3__123__libcpp_numeric_limitsIlLb1EE3maxB7v160006Ev, symObjAddr: 0x1500, symBinAddr: 0x10000298C, symSize: 0x8 }
  - { offsetInCU: 0xD498, offset: 0xD498, size: 0x8, addend: 0x0, symName: __ZNSt12length_errorC1B7v160006EPKc, symObjAddr: 0x156C, symBinAddr: 0x1000029F8, symSize: 0x34 }
  - { offsetInCU: 0xD4D0, offset: 0xD4D0, size: 0x8, addend: 0x0, symName: __ZNSt12length_errorC2B7v160006EPKc, symObjAddr: 0x15A0, symBinAddr: 0x100002A2C, symSize: 0x4C }
  - { offsetInCU: 0xD508, offset: 0xD508, size: 0x8, addend: 0x0, symName: __ZNKSt3__16vectorIPK7CompanyNS_9allocatorIS3_EEE9__end_capB7v160006Ev, symObjAddr: 0x15EC, symBinAddr: 0x100002A78, symSize: 0x28 }
  - { offsetInCU: 0xD52E, offset: 0xD52E, size: 0x8, addend: 0x0, symName: __ZNKSt3__117__compressed_pairIPPK7CompanyNS_9allocatorIS3_EEE5firstB7v160006Ev, symObjAddr: 0x1614, symBinAddr: 0x100002AA0, symSize: 0x24 }
  - { offsetInCU: 0xD554, offset: 0xD554, size: 0x8, addend: 0x0, symName: __ZNKSt3__122__compressed_pair_elemIPPK7CompanyLi0ELb0EE5__getB7v160006Ev, symObjAddr: 0x1638, symBinAddr: 0x100002AC4, symSize: 0x14 }
  - { offsetInCU: 0xD57A, offset: 0xD57A, size: 0x8, addend: 0x0, symName: __ZNSt3__114__split_bufferIPK7CompanyRNS_9allocatorIS3_EEEC2EmmS6_, symObjAddr: 0x16A0, symBinAddr: 0x100002B2C, symSize: 0xD4 }
  - { offsetInCU: 0xD5F3, offset: 0xD5F3, size: 0x8, addend: 0x0, symName: __ZNSt3__117__compressed_pairIPPK7CompanyRNS_9allocatorIS3_EEEC1B7v160006IDnS7_EEOT_OT0_, symObjAddr: 0x1774, symBinAddr: 0x100002C00, symSize: 0x3C }
  - { offsetInCU: 0xD64B, offset: 0xD64B, size: 0x8, addend: 0x0, symName: __ZNSt3__114__split_bufferIPK7CompanyRNS_9allocatorIS3_EEE7__allocB7v160006Ev, symObjAddr: 0x17F0, symBinAddr: 0x100002C7C, symSize: 0x28 }
  - { offsetInCU: 0xD671, offset: 0xD671, size: 0x8, addend: 0x0, symName: __ZNSt3__114__split_bufferIPK7CompanyRNS_9allocatorIS3_EEE9__end_capB7v160006Ev, symObjAddr: 0x1818, symBinAddr: 0x100002CA4, symSize: 0x28 }
  - { offsetInCU: 0xD697, offset: 0xD697, size: 0x8, addend: 0x0, symName: __ZNSt3__117__compressed_pairIPPK7CompanyRNS_9allocatorIS3_EEEC2B7v160006IDnS7_EEOT_OT0_, symObjAddr: 0x1840, symBinAddr: 0x100002CCC, symSize: 0x48 }
  - { offsetInCU: 0xD6EF, offset: 0xD6EF, size: 0x8, addend: 0x0, symName: __ZNSt3__122__compressed_pair_elemIPPK7CompanyLi0ELb0EEC2B7v160006IDnvEEOT_, symObjAddr: 0x1888, symBinAddr: 0x100002D14, symSize: 0x1C }
  - { offsetInCU: 0xD731, offset: 0xD731, size: 0x8, addend: 0x0, symName: __ZNSt3__122__compressed_pair_elemIRNS_9allocatorIPK7CompanyEELi1ELb0EEC2B7v160006IS6_vEEOT_, symObjAddr: 0x18A4, symBinAddr: 0x100002D30, symSize: 0x20 }
  - { offsetInCU: 0xD773, offset: 0xD773, size: 0x8, addend: 0x0, symName: __ZNSt3__19allocatorIPK7CompanyE8allocateB7v160006Em, symObjAddr: 0x18C4, symBinAddr: 0x100002D50, symSize: 0x58 }
  - { offsetInCU: 0xD7A7, offset: 0xD7A7, size: 0x8, addend: 0x0, symName: __ZNSt3__117__compressed_pairIPPK7CompanyRNS_9allocatorIS3_EEE6secondB7v160006Ev, symObjAddr: 0x1A20, symBinAddr: 0x100002EAC, symSize: 0x28 }
  - { offsetInCU: 0xD7CD, offset: 0xD7CD, size: 0x8, addend: 0x0, symName: __ZNSt3__122__compressed_pair_elemIRNS_9allocatorIPK7CompanyEELi1ELb0EE5__getB7v160006Ev, symObjAddr: 0x1A48, symBinAddr: 0x100002ED4, symSize: 0x18 }
  - { offsetInCU: 0xD7F3, offset: 0xD7F3, size: 0x8, addend: 0x0, symName: __ZNSt3__117__compressed_pairIPPK7CompanyRNS_9allocatorIS3_EEE5firstB7v160006Ev, symObjAddr: 0x1A60, symBinAddr: 0x100002EEC, symSize: 0x24 }
  - { offsetInCU: 0xD819, offset: 0xD819, size: 0x8, addend: 0x0, symName: __ZNKSt3__16vectorIPK7CompanyNS_9allocatorIS3_EEE17__annotate_deleteB7v160006Ev, symObjAddr: 0x1A84, symBinAddr: 0x100002F10, symSize: 0xB8 }
  - { offsetInCU: 0xD83F, offset: 0xD83F, size: 0x8, addend: 0x0, symName: __ZNSt3__116reverse_iteratorIPPK7CompanyEC1B7v160006ES4_, symObjAddr: 0x1BB4, symBinAddr: 0x100003040, symSize: 0x34 }
  - { offsetInCU: 0xD877, offset: 0xD877, size: 0x8, addend: 0x0, symName: __ZNKSt3__116reverse_iteratorIPPK7CompanyE4baseB7v160006Ev, symObjAddr: 0x1BE8, symBinAddr: 0x100003074, symSize: 0x18 }
  - { offsetInCU: 0xD89D, offset: 0xD89D, size: 0x8, addend: 0x0, symName: __ZNKSt3__16vectorIPK7CompanyNS_9allocatorIS3_EEE14__annotate_newB7v160006Em, symObjAddr: 0x1C3C, symBinAddr: 0x1000030C8, symSize: 0xAC }
  - { offsetInCU: 0xD8D2, offset: 0xD8D2, size: 0x8, addend: 0x0, symName: __ZNKSt3__16vectorIPK7CompanyNS_9allocatorIS3_EEE31__annotate_contiguous_containerB7v160006EPKvS8_S8_S8_, symObjAddr: 0x1CF8, symBinAddr: 0x100003184, symSize: 0x20 }
  - { offsetInCU: 0xD924, offset: 0xD924, size: 0x8, addend: 0x0, symName: __ZNKSt3__16vectorIPK7CompanyNS_9allocatorIS3_EEE4dataB7v160006Ev, symObjAddr: 0x1D18, symBinAddr: 0x1000031A4, symSize: 0x28 }
  - { offsetInCU: 0xD96E, offset: 0xD96E, size: 0x8, addend: 0x0, symName: __ZNKSt3__111__move_loopINS_17_ClassicAlgPolicyEEclB7v160006INS_16reverse_iteratorIPPK7CompanyEES9_S9_EENS_4pairIT_T1_EESB_T0_SC_, symObjAddr: 0x2030, symBinAddr: 0x1000034BC, symSize: 0xA0 }
  - { offsetInCU: 0xD9DF, offset: 0xD9DF, size: 0x8, addend: 0x0, symName: __ZNSt3__18_IterOpsINS_17_ClassicAlgPolicyEE11__iter_moveB7v160006IRNS_16reverse_iteratorIPPK7CompanyEEEENS_9enable_ifIXsr12is_referenceIDTdeclsr3stdE7declvalIRT_EEEEE5valueEDTclsr3stdE4movedeclsr3stdE7declvalISD_EEEEE4typeEOSC_, symObjAddr: 0x2264, symBinAddr: 0x1000036F0, symSize: 0x28 }
  - { offsetInCU: 0xDA0B, offset: 0xDA0B, size: 0x8, addend: 0x0, symName: __ZNKSt3__116reverse_iteratorIPPK7CompanyEdeB7v160006Ev, symObjAddr: 0x228C, symBinAddr: 0x100003718, symSize: 0x28 }
  - { offsetInCU: 0xDA3F, offset: 0xDA3F, size: 0x8, addend: 0x0, symName: __ZNSt3__116reverse_iteratorIPPK7CompanyEppB7v160006Ev, symObjAddr: 0x22B4, symBinAddr: 0x100003740, symSize: 0x20 }
  - { offsetInCU: 0xDA65, offset: 0xDA65, size: 0x8, addend: 0x0, symName: __ZNSt3__18_IterOpsINS_17_ClassicAlgPolicyEE25__validate_iter_referenceB7v160006IRNS_16reverse_iteratorIPPK7CompanyEEEEvv, symObjAddr: 0x22D4, symBinAddr: 0x100003760, symSize: 0x4 }
  - { offsetInCU: 0xDA83, offset: 0xDA83, size: 0x8, addend: 0x0, symName: __ZNSt3__118__unwrap_iter_implINS_16reverse_iteratorIPPK7CompanyEELb0EE8__unwrapB7v160006ES6_, symObjAddr: 0x22D8, symBinAddr: 0x100003764, symSize: 0x24 }
  - { offsetInCU: 0xDAAC, offset: 0xDAAC, size: 0x8, addend: 0x0, symName: __ZNSt3__14pairINS_16reverse_iteratorIPPK7CompanyEES6_EC1B7v160006IS6_S6_LPv0EEEOT_OT0_, symObjAddr: 0x22FC, symBinAddr: 0x100003788, symSize: 0x3C }
  - { offsetInCU: 0xDB0A, offset: 0xDB0A, size: 0x8, addend: 0x0, symName: __ZNSt3__14pairINS_16reverse_iteratorIPPK7CompanyEES6_EC2B7v160006IS6_S6_LPv0EEEOT_OT0_, symObjAddr: 0x2338, symBinAddr: 0x1000037C4, symSize: 0x34 }
  - { offsetInCU: 0xDB68, offset: 0xDB68, size: 0x8, addend: 0x0, symName: __ZNSt3__118__unwrap_iter_implINS_16reverse_iteratorIPPK7CompanyEELb0EE8__rewrapB7v160006ES6_S6_, symObjAddr: 0x236C, symBinAddr: 0x1000037F8, symSize: 0x2C }
  - { offsetInCU: 0xDB96, offset: 0xDB96, size: 0x8, addend: 0x0, symName: __ZNSt3__116reverse_iteratorIPPK7CompanyEC2B7v160006ES4_, symObjAddr: 0x2398, symBinAddr: 0x100003824, symSize: 0x28 }
  - { offsetInCU: 0xDBCE, offset: 0xDBCE, size: 0x8, addend: 0x0, symName: __ZNSt3__114__split_bufferIPK7CompanyRNS_9allocatorIS3_EEED2Ev, symObjAddr: 0x23C0, symBinAddr: 0x10000384C, symSize: 0x8C }
  - { offsetInCU: 0xDBFA, offset: 0xDBFA, size: 0x8, addend: 0x0, symName: __ZNSt3__114__split_bufferIPK7CompanyRNS_9allocatorIS3_EEE5clearB7v160006Ev, symObjAddr: 0x244C, symBinAddr: 0x1000038D8, symSize: 0x28 }
  - { offsetInCU: 0xDC20, offset: 0xDC20, size: 0x8, addend: 0x0, symName: __ZNSt3__116allocator_traitsINS_9allocatorIPK7CompanyEEE10deallocateB7v160006ERS5_PS4_m, symObjAddr: 0x2474, symBinAddr: 0x100003900, symSize: 0x34 }
  - { offsetInCU: 0xDC62, offset: 0xDC62, size: 0x8, addend: 0x0, symName: __ZNKSt3__114__split_bufferIPK7CompanyRNS_9allocatorIS3_EEE8capacityB7v160006Ev, symObjAddr: 0x24A8, symBinAddr: 0x100003934, symSize: 0x40 }
  - { offsetInCU: 0xDC88, offset: 0xDC88, size: 0x8, addend: 0x0, symName: __ZNSt3__114__split_bufferIPK7CompanyRNS_9allocatorIS3_EEE17__destruct_at_endB7v160006EPS3_, symObjAddr: 0x24E8, symBinAddr: 0x100003974, symSize: 0x2C }
  - { offsetInCU: 0xDCBC, offset: 0xDCBC, size: 0x8, addend: 0x0, symName: __ZNSt3__114__split_bufferIPK7CompanyRNS_9allocatorIS3_EEE17__destruct_at_endB7v160006EPS3_NS_17integral_constantIbLb0EEE, symObjAddr: 0x2514, symBinAddr: 0x1000039A0, symSize: 0x80 }
  - { offsetInCU: 0xDCFD, offset: 0xDCFD, size: 0x8, addend: 0x0, symName: __ZNSt3__116allocator_traitsINS_9allocatorIPK7CompanyEEE7destroyB7v160006IS4_vEEvRS5_PT_, symObjAddr: 0x2594, symBinAddr: 0x100003A20, symSize: 0x2C }
  - { offsetInCU: 0xDD3A, offset: 0xDD3A, size: 0x8, addend: 0x0, symName: __ZNSt3__19allocatorIPK7CompanyE7destroyB7v160006EPS3_, symObjAddr: 0x25C0, symBinAddr: 0x100003A4C, symSize: 0x14 }
  - { offsetInCU: 0xDD6E, offset: 0xDD6E, size: 0x8, addend: 0x0, symName: __ZNSt3__19allocatorIPK7CompanyE10deallocateB7v160006EPS3_m, symObjAddr: 0x25D4, symBinAddr: 0x100003A60, symSize: 0x40 }
  - { offsetInCU: 0xDDB0, offset: 0xDDB0, size: 0x8, addend: 0x0, symName: __ZNKSt3__114__split_bufferIPK7CompanyRNS_9allocatorIS3_EEE9__end_capB7v160006Ev, symObjAddr: 0x271C, symBinAddr: 0x100003BA8, symSize: 0x28 }
  - { offsetInCU: 0xDDD6, offset: 0xDDD6, size: 0x8, addend: 0x0, symName: __ZNKSt3__117__compressed_pairIPPK7CompanyRNS_9allocatorIS3_EEE5firstB7v160006Ev, symObjAddr: 0x2744, symBinAddr: 0x100003BD0, symSize: 0x24 }
  - { offsetInCU: 0xDE01, offset: 0xDE01, size: 0x8, addend: 0x0, symName: __ZNSt3__116_UnwrapAlgPolicyIR10ComparatorE10__get_compB7v160006ES2_, symObjAddr: 0x28E8, symBinAddr: 0x100003D74, symSize: 0x14 }
  - { offsetInCU: 0xDE24, offset: 0xDE24, size: 0x8, addend: 0x0, symName: __ZN10ComparatorclEPK7CompanyS2_, symObjAddr: 0x3038, symBinAddr: 0x1000044C4, symSize: 0x4C }
  - { offsetInCU: 0xDE66, offset: 0xDE66, size: 0x8, addend: 0x0, symName: __ZNSt3__18_IterOpsINS_17_ClassicAlgPolicyEE9iter_swapB7v160006IRPPK7CompanyS8_EEvOT_OT0_, symObjAddr: 0x3084, symBinAddr: 0x100004510, symSize: 0x34 }
  - { offsetInCU: 0xDEA9, offset: 0xDEA9, size: 0x8, addend: 0x0, symName: __ZNSt3__18_IterOpsINS_17_ClassicAlgPolicyEE11__iter_moveB7v160006IRPPK7CompanyEENS_9enable_ifIXsr12is_referenceIDTdeclsr3stdE7declvalIRT_EEEEE5valueEDTclsr3stdE4movedeclsr3stdE7declvalISB_EEEEE4typeEOSA_, symObjAddr: 0x39C8, symBinAddr: 0x100004E54, symSize: 0x28 }
  - { offsetInCU: 0xDED5, offset: 0xDED5, size: 0x8, addend: 0x0, symName: __ZNSt3__18_IterOpsINS_17_ClassicAlgPolicyEE25__validate_iter_referenceB7v160006IRPPK7CompanyEEvv, symObjAddr: 0x39F0, symBinAddr: 0x100004E7C, symSize: 0x4 }
  - { offsetInCU: 0xDEF3, offset: 0xDEF3, size: 0x8, addend: 0x0, symName: __ZNSt3__18_IterOpsINS_17_ClassicAlgPolicyEE4nextB7v160006IPPK7CompanyEET_S8_S8_, symObjAddr: 0x39F4, symBinAddr: 0x100004E80, symSize: 0x18 }
  - { offsetInCU: 0xDF2A, offset: 0xDF2A, size: 0x8, addend: 0x0, symName: __ZNSt3__118__unwrap_iter_implINS_11__wrap_iterIPPK7CompanyEELb1EE8__unwrapB7v160006ES6_, symObjAddr: 0x430C, symBinAddr: 0x100005798, symSize: 0x28 }
  - { offsetInCU: 0xDF57, offset: 0xDF57, size: 0x8, addend: 0x0, symName: __ZNSt3__119__to_address_helperINS_11__wrap_iterIPPK7CompanyEEvE6__callB7v160006ERKS6_, symObjAddr: 0x4358, symBinAddr: 0x1000057E4, symSize: 0x30 }
  - { offsetInCU: 0xDF7A, offset: 0xDF7A, size: 0x8, addend: 0x0, symName: __ZNSt3__114pointer_traitsINS_11__wrap_iterIPPK7CompanyEEE10to_addressB7v160006ES6_, symObjAddr: 0x4388, symBinAddr: 0x100005814, symSize: 0x2C }
  - { offsetInCU: 0xDF9E, offset: 0xDF9E, size: 0x8, addend: 0x0, symName: __ZNKSt3__111__wrap_iterIPPK7CompanyE4baseB7v160006Ev, symObjAddr: 0x43B4, symBinAddr: 0x100005840, symSize: 0x18 }
  - { offsetInCU: 0xDFC4, offset: 0xDFC4, size: 0x8, addend: 0x0, symName: __ZNSt3__119basic_istringstreamIcNS_11char_traitsIcEENS_9allocatorIcEEED2Ev, symObjAddr: 0x43CC, symBinAddr: 0x100005858, symSize: 0x64 }
  - { offsetInCU: 0xDFFE, offset: 0xDFFE, size: 0x8, addend: 0x0, symName: __ZTv0_n24_NSt3__119basic_istringstreamIcNS_11char_traitsIcEENS_9allocatorIcEEED1Ev, symObjAddr: 0x4430, symBinAddr: 0x1000058BC, symSize: 0x28 }
  - { offsetInCU: 0xE01A, offset: 0xE01A, size: 0x8, addend: 0x0, symName: __ZNSt3__115basic_stringbufIcNS_11char_traitsIcEENS_9allocatorIcEEED1Ev, symObjAddr: 0x4458, symBinAddr: 0x1000058E4, symSize: 0x2C }
  - { offsetInCU: 0xE047, offset: 0xE047, size: 0x8, addend: 0x0, symName: __ZNSt3__115basic_stringbufIcNS_11char_traitsIcEENS_9allocatorIcEEED2Ev, symObjAddr: 0x4484, symBinAddr: 0x100005910, symSize: 0x48 }
  - { offsetInCU: 0xE074, offset: 0xE074, size: 0x8, addend: 0x0, symName: __ZN7CompanyD2Ev, symObjAddr: 0x4514, symBinAddr: 0x1000059A0, symSize: 0x2C }
  - { offsetInCU: 0xE0BE, offset: 0xE0BE, size: 0x8, addend: 0x0, symName: __ZNKSt3__113basic_istreamIcNS_11char_traitsIcEEE6sentrycvbB7v160006Ev, symObjAddr: 0x4540, symBinAddr: 0x1000059CC, symSize: 0x1C }
  - { offsetInCU: 0xE0E4, offset: 0xE0E4, size: 0x8, addend: 0x0, symName: __ZNSt3__112basic_stringIcNS_11char_traitsIcEENS_9allocatorIcEEE5clearB7v160006Ev, symObjAddr: 0x455C, symBinAddr: 0x1000059E8, symSize: 0x88 }
  - { offsetInCU: 0xE10C, offset: 0xE10C, size: 0x8, addend: 0x0, symName: __ZNKSt3__18ios_base5widthB7v160006Ev, symObjAddr: 0x45E4, symBinAddr: 0x100005A70, symSize: 0x18 }
  - { offsetInCU: 0xE134, offset: 0xE134, size: 0x8, addend: 0x0, symName: __ZNKSt3__112basic_stringIcNS_11char_traitsIcEENS_9allocatorIcEEE8max_sizeB7v160006Ev, symObjAddr: 0x45FC, symBinAddr: 0x100005A88, symSize: 0xAC }
  - { offsetInCU: 0xE186, offset: 0xE186, size: 0x8, addend: 0x0, symName: __ZNKSt3__19basic_iosIcNS_11char_traitsIcEEE5rdbufB7v160006Ev, symObjAddr: 0x46D4, symBinAddr: 0x100005B60, symSize: 0x24 }
  - { offsetInCU: 0xE1AE, offset: 0xE1AE, size: 0x8, addend: 0x0, symName: __ZNSt3__115basic_streambufIcNS_11char_traitsIcEEE5sgetcB7v160006Ev, symObjAddr: 0x46F8, symBinAddr: 0x100005B84, symSize: 0x70 }
  - { offsetInCU: 0xE1D4, offset: 0xE1D4, size: 0x8, addend: 0x0, symName: __ZNSt3__111char_traitsIcE11eq_int_typeEii, symObjAddr: 0x4768, symBinAddr: 0x100005BF4, symSize: 0x28 }
  - { offsetInCU: 0xE205, offset: 0xE205, size: 0x8, addend: 0x0, symName: __ZNSt3__111char_traitsIcE3eofEv, symObjAddr: 0x4790, symBinAddr: 0x100005C1C, symSize: 0x8 }
  - { offsetInCU: 0xE219, offset: 0xE219, size: 0x8, addend: 0x0, symName: __ZNSt3__111char_traitsIcE12to_char_typeEi, symObjAddr: 0x4798, symBinAddr: 0x100005C24, symSize: 0x18 }
  - { offsetInCU: 0xE269, offset: 0xE269, size: 0x8, addend: 0x0, symName: __ZNKSt3__15ctypeIcE2isB7v160006Ejc, symObjAddr: 0x47B0, symBinAddr: 0x100005C3C, symSize: 0x7C }
  - { offsetInCU: 0xE2AD, offset: 0xE2AD, size: 0x8, addend: 0x0, symName: __ZNSt3__115basic_streambufIcNS_11char_traitsIcEEE6sbumpcB7v160006Ev, symObjAddr: 0x482C, symBinAddr: 0x100005CB8, symSize: 0x78 }
  - { offsetInCU: 0xE2D3, offset: 0xE2D3, size: 0x8, addend: 0x0, symName: __ZNSt3__18ios_base5widthB7v160006El, symObjAddr: 0x48A4, symBinAddr: 0x100005D30, symSize: 0x2C }
  - { offsetInCU: 0xE319, offset: 0xE319, size: 0x8, addend: 0x0, symName: __ZNSt3__18ios_base18__setstate_nothrowB7v160006Ej, symObjAddr: 0x48D0, symBinAddr: 0x100005D5C, symSize: 0x64 }
  - { offsetInCU: 0xE34E, offset: 0xE34E, size: 0x8, addend: 0x0, symName: __ZNKSt3__19basic_iosIcNS_11char_traitsIcEEE10exceptionsB7v160006Ev, symObjAddr: 0x4934, symBinAddr: 0x100005DC0, symSize: 0x24 }
  - { offsetInCU: 0xE374, offset: 0xE374, size: 0x8, addend: 0x0, symName: __ZNSt3__19basic_iosIcNS_11char_traitsIcEEE8setstateB7v160006Ej, symObjAddr: 0x4958, symBinAddr: 0x100005DE4, symSize: 0x2C }
  - { offsetInCU: 0xE3A9, offset: 0xE3A9, size: 0x8, addend: 0x0, symName: __ZNKSt3__112basic_stringIcNS_11char_traitsIcEENS_9allocatorIcEEE9__is_longB7v160006Ev, symObjAddr: 0x4994, symBinAddr: 0x100005E20, symSize: 0x38 }
  - { offsetInCU: 0xE3CF, offset: 0xE3CF, size: 0x8, addend: 0x0, symName: __ZNSt3__111char_traitsIcE6assignERcRKc, symObjAddr: 0x49CC, symBinAddr: 0x100005E58, symSize: 0x24 }
  - { offsetInCU: 0xE400, offset: 0xE400, size: 0x8, addend: 0x0, symName: __ZNSt3__112basic_stringIcNS_11char_traitsIcEENS_9allocatorIcEEE18__get_long_pointerB7v160006Ev, symObjAddr: 0x49F0, symBinAddr: 0x100005E7C, symSize: 0x28 }
  - { offsetInCU: 0xE426, offset: 0xE426, size: 0x8, addend: 0x0, symName: __ZNSt3__112basic_stringIcNS_11char_traitsIcEENS_9allocatorIcEEE15__set_long_sizeB7v160006Em, symObjAddr: 0x4A18, symBinAddr: 0x100005EA4, symSize: 0x38 }
  - { offsetInCU: 0xE45B, offset: 0xE45B, size: 0x8, addend: 0x0, symName: __ZNSt3__112basic_stringIcNS_11char_traitsIcEENS_9allocatorIcEEE19__get_short_pointerB7v160006Ev, symObjAddr: 0x4A50, symBinAddr: 0x100005EDC, symSize: 0x28 }
  - { offsetInCU: 0xE481, offset: 0xE481, size: 0x8, addend: 0x0, symName: __ZNSt3__112basic_stringIcNS_11char_traitsIcEENS_9allocatorIcEEE16__set_short_sizeB7v160006Em, symObjAddr: 0x4A78, symBinAddr: 0x100005F04, symSize: 0x78 }
  - { offsetInCU: 0xE4B6, offset: 0xE4B6, size: 0x8, addend: 0x0, symName: __ZNKSt3__117__compressed_pairINS_12basic_stringIcNS_11char_traitsIcEENS_9allocatorIcEEE5__repES5_E5firstB7v160006Ev, symObjAddr: 0x4AF0, symBinAddr: 0x100005F7C, symSize: 0x24 }
  - { offsetInCU: 0xE4DC, offset: 0xE4DC, size: 0x8, addend: 0x0, symName: __ZNKSt3__122__compressed_pair_elemINS_12basic_stringIcNS_11char_traitsIcEENS_9allocatorIcEEE5__repELi0ELb0EE5__getB7v160006Ev, symObjAddr: 0x4B14, symBinAddr: 0x100005FA0, symSize: 0x14 }
  - { offsetInCU: 0xE502, offset: 0xE502, size: 0x8, addend: 0x0, symName: __ZNSt3__117__compressed_pairINS_12basic_stringIcNS_11char_traitsIcEENS_9allocatorIcEEE5__repES5_E5firstB7v160006Ev, symObjAddr: 0x4B28, symBinAddr: 0x100005FB4, symSize: 0x24 }
  - { offsetInCU: 0xE528, offset: 0xE528, size: 0x8, addend: 0x0, symName: __ZNSt3__122__compressed_pair_elemINS_12basic_stringIcNS_11char_traitsIcEENS_9allocatorIcEEE5__repELi0ELb0EE5__getB7v160006Ev, symObjAddr: 0x4B4C, symBinAddr: 0x100005FD8, symSize: 0x14 }
  - { offsetInCU: 0xE54E, offset: 0xE54E, size: 0x8, addend: 0x0, symName: __ZNSt3__114pointer_traitsIPcE10pointer_toB7v160006ERc, symObjAddr: 0x4B60, symBinAddr: 0x100005FEC, symSize: 0x14 }
  - { offsetInCU: 0xE57B, offset: 0xE57B, size: 0x8, addend: 0x0, symName: __ZNSt3__116allocator_traitsINS_9allocatorIcEEE8max_sizeB7v160006IS2_vEEmRKS2_, symObjAddr: 0x4B74, symBinAddr: 0x100006000, symSize: 0x24 }
  - { offsetInCU: 0xE5A9, offset: 0xE5A9, size: 0x8, addend: 0x0, symName: __ZNKSt3__112basic_stringIcNS_11char_traitsIcEENS_9allocatorIcEEE7__allocB7v160006Ev, symObjAddr: 0x4B98, symBinAddr: 0x100006024, symSize: 0x24 }
  - { offsetInCU: 0xE5CF, offset: 0xE5CF, size: 0x8, addend: 0x0, symName: __ZNSt3__114numeric_limitsImE3maxB7v160006Ev, symObjAddr: 0x4BBC, symBinAddr: 0x100006048, symSize: 0x14 }
  - { offsetInCU: 0xE5E3, offset: 0xE5E3, size: 0x8, addend: 0x0, symName: __ZNKSt3__19allocatorIcE8max_sizeB7v160006Ev, symObjAddr: 0x4BD0, symBinAddr: 0x10000605C, symSize: 0x14 }
  - { offsetInCU: 0xE609, offset: 0xE609, size: 0x8, addend: 0x0, symName: __ZNKSt3__117__compressed_pairINS_12basic_stringIcNS_11char_traitsIcEENS_9allocatorIcEEE5__repES5_E6secondB7v160006Ev, symObjAddr: 0x4BE4, symBinAddr: 0x100006070, symSize: 0x24 }
  - { offsetInCU: 0xE62F, offset: 0xE62F, size: 0x8, addend: 0x0, symName: __ZNKSt3__122__compressed_pair_elemINS_9allocatorIcEELi1ELb1EE5__getB7v160006Ev, symObjAddr: 0x4C08, symBinAddr: 0x100006094, symSize: 0x14 }
  - { offsetInCU: 0xE655, offset: 0xE655, size: 0x8, addend: 0x0, symName: __ZNSt3__123__libcpp_numeric_limitsImLb1EE3maxB7v160006Ev, symObjAddr: 0x4C1C, symBinAddr: 0x1000060A8, symSize: 0x8 }
  - { offsetInCU: 0xE669, offset: 0xE669, size: 0x8, addend: 0x0, symName: __ZNKSt3__18ios_base5rdbufB7v160006Ev, symObjAddr: 0x4C24, symBinAddr: 0x1000060B0, symSize: 0x18 }
  - { offsetInCU: 0xE68F, offset: 0xE68F, size: 0x8, addend: 0x0, symName: __ZNSt3__111char_traitsIcE11to_int_typeEc, symObjAddr: 0x4C3C, symBinAddr: 0x1000060C8, symSize: 0x14 }
  - { offsetInCU: 0xE6B1, offset: 0xE6B1, size: 0x8, addend: 0x0, symName: __Z7isasciii, symObjAddr: 0x4C50, symBinAddr: 0x1000060DC, symSize: 0x24 }
  - { offsetInCU: 0xE6DE, offset: 0xE6DE, size: 0x8, addend: 0x0, symName: __ZNKSt3__18ios_base10exceptionsB7v160006Ev, symObjAddr: 0x4C74, symBinAddr: 0x100006100, symSize: 0x18 }
  - { offsetInCU: 0xE706, offset: 0xE706, size: 0x8, addend: 0x0, symName: __ZNSt3__18ios_base8setstateB7v160006Ej, symObjAddr: 0x4C8C, symBinAddr: 0x100006118, symSize: 0x34 }
  - { offsetInCU: 0xE73D, offset: 0xE73D, size: 0x8, addend: 0x0, symName: __ZNKSt3__112basic_stringIcNS_11char_traitsIcEENS_9allocatorIcEEE4dataB7v160006Ev, symObjAddr: 0x4EAC, symBinAddr: 0x100006338, symSize: 0x28 }
  - { offsetInCU: 0xE763, offset: 0xE763, size: 0x8, addend: 0x0, symName: __ZNKSt3__112basic_stringIcNS_11char_traitsIcEENS_9allocatorIcEEE4sizeB7v160006Ev, symObjAddr: 0x4ED4, symBinAddr: 0x100006360, symSize: 0x54 }
  - { offsetInCU: 0xE7A7, offset: 0xE7A7, size: 0x8, addend: 0x0, symName: __ZNKSt3__113basic_ostreamIcNS_11char_traitsIcEEE6sentrycvbB7v160006Ev, symObjAddr: 0x4F28, symBinAddr: 0x1000063B4, symSize: 0x1C }
  - { offsetInCU: 0xE7CD, offset: 0xE7CD, size: 0x8, addend: 0x0, symName: __ZNSt3__119ostreambuf_iteratorIcNS_11char_traitsIcEEEC1B7v160006ERNS_13basic_ostreamIcS2_EE, symObjAddr: 0x5184, symBinAddr: 0x100006610, symSize: 0x34 }
  - { offsetInCU: 0xE805, offset: 0xE805, size: 0x8, addend: 0x0, symName: __ZNKSt3__18ios_base5flagsB7v160006Ev, symObjAddr: 0x51B8, symBinAddr: 0x100006644, symSize: 0x18 }
  - { offsetInCU: 0xE82D, offset: 0xE82D, size: 0x8, addend: 0x0, symName: __ZNKSt3__19basic_iosIcNS_11char_traitsIcEEE4fillB7v160006Ev, symObjAddr: 0x51D0, symBinAddr: 0x10000665C, symSize: 0x64 }
  - { offsetInCU: 0xE855, offset: 0xE855, size: 0x8, addend: 0x0, symName: __ZNKSt3__119ostreambuf_iteratorIcNS_11char_traitsIcEEE6failedB7v160006Ev, symObjAddr: 0x5234, symBinAddr: 0x1000066C0, symSize: 0x24 }
  - { offsetInCU: 0xE87B, offset: 0xE87B, size: 0x8, addend: 0x0, symName: __ZNSt3__115basic_streambufIcNS_11char_traitsIcEEE5sputnB7v160006EPKcl, symObjAddr: 0x5258, symBinAddr: 0x1000066E4, symSize: 0x3C }
  - { offsetInCU: 0xE8BD, offset: 0xE8BD, size: 0x8, addend: 0x0, symName: __ZNSt3__112basic_stringIcNS_11char_traitsIcEENS_9allocatorIcEEEC1B7v160006Emc, symObjAddr: 0x5294, symBinAddr: 0x100006720, symSize: 0x3C }
  - { offsetInCU: 0xE905, offset: 0xE905, size: 0x8, addend: 0x0, symName: __ZNSt3__112basic_stringIcNS_11char_traitsIcEENS_9allocatorIcEEE4dataB7v160006Ev, symObjAddr: 0x52D0, symBinAddr: 0x10000675C, symSize: 0x28 }
  - { offsetInCU: 0xE92B, offset: 0xE92B, size: 0x8, addend: 0x0, symName: __ZNSt3__112basic_stringIcNS_11char_traitsIcEENS_9allocatorIcEEEC2B7v160006Emc, symObjAddr: 0x52F8, symBinAddr: 0x100006784, symSize: 0x54 }
  - { offsetInCU: 0xE979, offset: 0xE979, size: 0x8, addend: 0x0, symName: __ZNSt3__117__compressed_pairINS_12basic_stringIcNS_11char_traitsIcEENS_9allocatorIcEEE5__repES5_EC1B7v160006INS_18__default_init_tagESA_EEOT_OT0_, symObjAddr: 0x534C, symBinAddr: 0x1000067D8, symSize: 0x3C }
  - { offsetInCU: 0xE9D1, offset: 0xE9D1, size: 0x8, addend: 0x0, symName: __ZNSt3__117__compressed_pairINS_12basic_stringIcNS_11char_traitsIcEENS_9allocatorIcEEE5__repES5_EC2B7v160006INS_18__default_init_tagESA_EEOT_OT0_, symObjAddr: 0x5398, symBinAddr: 0x100006824, symSize: 0x3C }
  - { offsetInCU: 0xEA29, offset: 0xEA29, size: 0x8, addend: 0x0, symName: __ZNSt3__122__compressed_pair_elemINS_12basic_stringIcNS_11char_traitsIcEENS_9allocatorIcEEE5__repELi0ELb0EEC2B7v160006ENS_18__default_init_tagE, symObjAddr: 0x53D4, symBinAddr: 0x100006860, symSize: 0x14 }
  - { offsetInCU: 0xEA5E, offset: 0xEA5E, size: 0x8, addend: 0x0, symName: __ZNSt3__122__compressed_pair_elemINS_9allocatorIcEELi1ELb1EEC2B7v160006ENS_18__default_init_tagE, symObjAddr: 0x53E8, symBinAddr: 0x100006874, symSize: 0x2C }
  - { offsetInCU: 0xEA93, offset: 0xEA93, size: 0x8, addend: 0x0, symName: __ZNSt3__19allocatorIcEC2B7v160006Ev, symObjAddr: 0x5414, symBinAddr: 0x1000068A0, symSize: 0x2C }
  - { offsetInCU: 0xEABD, offset: 0xEABD, size: 0x8, addend: 0x0, symName: __ZNSt3__116__non_trivial_ifILb1ENS_9allocatorIcEEEC2B7v160006Ev, symObjAddr: 0x5440, symBinAddr: 0x1000068CC, symSize: 0x14 }
  - { offsetInCU: 0xEAE7, offset: 0xEAE7, size: 0x8, addend: 0x0, symName: __ZNSt3__112basic_stringIcNS_11char_traitsIcEENS_9allocatorIcEEE13__get_pointerB7v160006Ev, symObjAddr: 0x5468, symBinAddr: 0x1000068F4, symSize: 0x54 }
  - { offsetInCU: 0xEB0D, offset: 0xEB0D, size: 0x8, addend: 0x0, symName: __ZNSt3__119ostreambuf_iteratorIcNS_11char_traitsIcEEEC2B7v160006ERNS_13basic_ostreamIcS2_EE, symObjAddr: 0x54BC, symBinAddr: 0x100006948, symSize: 0x54 }
  - { offsetInCU: 0xEB45, offset: 0xEB45, size: 0x8, addend: 0x0, symName: __ZNKSt3__19basic_iosIcNS_11char_traitsIcEEE5widenB7v160006Ec, symObjAddr: 0x5510, symBinAddr: 0x10000699C, symSize: 0x84 }
  - { offsetInCU: 0xEB7C, offset: 0xEB7C, size: 0x8, addend: 0x0, symName: __ZNKSt3__15ctypeIcE5widenB7v160006Ec, symObjAddr: 0x5594, symBinAddr: 0x100006A20, symSize: 0x38 }
  - { offsetInCU: 0xEBB1, offset: 0xEBB1, size: 0x8, addend: 0x0, symName: __ZNKSt3__112basic_stringIcNS_11char_traitsIcEENS_9allocatorIcEEE13__get_pointerB7v160006Ev, symObjAddr: 0x55E0, symBinAddr: 0x100006A6C, symSize: 0x54 }
  - { offsetInCU: 0xEBD7, offset: 0xEBD7, size: 0x8, addend: 0x0, symName: __ZNKSt3__112basic_stringIcNS_11char_traitsIcEENS_9allocatorIcEEE18__get_long_pointerB7v160006Ev, symObjAddr: 0x5634, symBinAddr: 0x100006AC0, symSize: 0x28 }
  - { offsetInCU: 0xEBFD, offset: 0xEBFD, size: 0x8, addend: 0x0, symName: __ZNKSt3__112basic_stringIcNS_11char_traitsIcEENS_9allocatorIcEEE19__get_short_pointerB7v160006Ev, symObjAddr: 0x565C, symBinAddr: 0x100006AE8, symSize: 0x28 }
  - { offsetInCU: 0xEC23, offset: 0xEC23, size: 0x8, addend: 0x0, symName: __ZNSt3__114pointer_traitsIPKcE10pointer_toB7v160006ERS1_, symObjAddr: 0x5684, symBinAddr: 0x100006B10, symSize: 0x14 }
  - { offsetInCU: 0xEC46, offset: 0xEC46, size: 0x8, addend: 0x0, symName: __ZNKSt3__112basic_stringIcNS_11char_traitsIcEENS_9allocatorIcEEE15__get_long_sizeB7v160006Ev, symObjAddr: 0x5698, symBinAddr: 0x100006B24, symSize: 0x28 }
  - { offsetInCU: 0xEC6C, offset: 0xEC6C, size: 0x8, addend: 0x0, symName: __ZNKSt3__112basic_stringIcNS_11char_traitsIcEENS_9allocatorIcEEE16__get_short_sizeB7v160006Ev, symObjAddr: 0x56C0, symBinAddr: 0x100006B4C, symSize: 0x34 }
  - { offsetInCU: 0xEC92, offset: 0xEC92, size: 0x8, addend: 0x0, symName: __ZNSt3__111char_traitsIcE6lengthEPKc, symObjAddr: 0x56F4, symBinAddr: 0x100006B80, symSize: 0x34 }
  - { offsetInCU: 0xECB5, offset: 0xECB5, size: 0x8, addend: 0x0, symName: __ZNSt3__16vectorIPK7CompanyNS_9allocatorIS3_EEE11__make_iterB7v160006EPS3_, symObjAddr: 0x574C, symBinAddr: 0x100006BD8, symSize: 0x34 }
  - { offsetInCU: 0xECEA, offset: 0xECEA, size: 0x8, addend: 0x0, symName: __ZNSt3__111__wrap_iterIPPK7CompanyEC1B7v160006EPKvS4_, symObjAddr: 0x5780, symBinAddr: 0x100006C0C, symSize: 0x3C }
  - { offsetInCU: 0xED30, offset: 0xED30, size: 0x8, addend: 0x0, symName: __ZNSt3__111__wrap_iterIPPK7CompanyEC2B7v160006EPKvS4_, symObjAddr: 0x57BC, symBinAddr: 0x100006C48, symSize: 0x24 }
  - { offsetInCU: 0xED76, offset: 0xED76, size: 0x8, addend: 0x0, symName: __ZNSt3__16vectorIPK7CompanyNS_9allocatorIS3_EEEC2B7v160006Ev, symObjAddr: 0x57E0, symBinAddr: 0x100006C6C, symSize: 0x58 }
  - { offsetInCU: 0xEDA0, offset: 0xEDA0, size: 0x8, addend: 0x0, symName: __ZNSt3__117__compressed_pairIPPK7CompanyNS_9allocatorIS3_EEEC1B7v160006IDnNS_18__default_init_tagEEEOT_OT0_, symObjAddr: 0x5838, symBinAddr: 0x100006CC4, symSize: 0x3C }
  - { offsetInCU: 0xEDF8, offset: 0xEDF8, size: 0x8, addend: 0x0, symName: __ZNSt3__117__compressed_pairIPPK7CompanyNS_9allocatorIS3_EEEC2B7v160006IDnNS_18__default_init_tagEEEOT_OT0_, symObjAddr: 0x5884, symBinAddr: 0x100006D10, symSize: 0x40 }
  - { offsetInCU: 0xEE50, offset: 0xEE50, size: 0x8, addend: 0x0, symName: __ZNSt3__122__compressed_pair_elemINS_9allocatorIPK7CompanyEELi1ELb1EEC2B7v160006ENS_18__default_init_tagE, symObjAddr: 0x58C4, symBinAddr: 0x100006D50, symSize: 0x2C }
  - { offsetInCU: 0xEE85, offset: 0xEE85, size: 0x8, addend: 0x0, symName: __ZNSt3__19allocatorIPK7CompanyEC2B7v160006Ev, symObjAddr: 0x58F0, symBinAddr: 0x100006D7C, symSize: 0x2C }
  - { offsetInCU: 0xEEAF, offset: 0xEEAF, size: 0x8, addend: 0x0, symName: __ZNSt3__116__non_trivial_ifILb1ENS_9allocatorIPK7CompanyEEEC2B7v160006Ev, symObjAddr: 0x591C, symBinAddr: 0x100006DA8, symSize: 0x14 }
  - { offsetInCU: 0xEED9, offset: 0xEED9, size: 0x8, addend: 0x0, symName: __ZNSt3__16vectorIPK7CompanyNS_9allocatorIS3_EEED2B7v160006Ev, symObjAddr: 0x5930, symBinAddr: 0x100006DBC, symSize: 0x44 }
  - { offsetInCU: 0xEF03, offset: 0xEF03, size: 0x8, addend: 0x0, symName: __ZNSt3__16vectorIPK7CompanyNS_9allocatorIS3_EEE16__destroy_vectorC1ERS6_, symObjAddr: 0x5974, symBinAddr: 0x100006E00, symSize: 0x34 }
  - { offsetInCU: 0xEF3C, offset: 0xEF3C, size: 0x8, addend: 0x0, symName: __ZNSt3__16vectorIPK7CompanyNS_9allocatorIS3_EEE16__destroy_vectorclB7v160006Ev, symObjAddr: 0x59A8, symBinAddr: 0x100006E34, symSize: 0x9C }
  - { offsetInCU: 0xEF62, offset: 0xEF62, size: 0x8, addend: 0x0, symName: __ZNSt3__16vectorIPK7CompanyNS_9allocatorIS3_EEE16__destroy_vectorC2ERS6_, symObjAddr: 0x5A44, symBinAddr: 0x100006ED0, symSize: 0x20 }
  - { offsetInCU: 0xEF9B, offset: 0xEF9B, size: 0x8, addend: 0x0, symName: __ZNSt3__16vectorIPK7CompanyNS_9allocatorIS3_EEE7__clearB7v160006Ev, symObjAddr: 0x5A74, symBinAddr: 0x100006F00, symSize: 0x28 }
  - { offsetInCU: 0xEFC1, offset: 0xEFC1, size: 0x8, addend: 0x0, symName: __ZNSt3__16vectorIPK7CompanyNS_9allocatorIS3_EEE22__base_destruct_at_endB7v160006EPS3_, symObjAddr: 0x5A9C, symBinAddr: 0x100006F28, symSize: 0x8C }
  - { offsetInCU: 0xF005, offset: 0xF005, size: 0x8, addend: 0x0, symName: __ZNSt3__112basic_stringIcNS_11char_traitsIcEENS_9allocatorIcEEEC2B7v160006Ev, symObjAddr: 0x5B28, symBinAddr: 0x100006FB4, symSize: 0x50 }
  - { offsetInCU: 0xF02F, offset: 0xF02F, size: 0x8, addend: 0x0, symName: __ZNSt3__112basic_stringIcNS_11char_traitsIcEENS_9allocatorIcEEE14__default_initB7v160006Ev, symObjAddr: 0x5B78, symBinAddr: 0x100007004, symSize: 0x40 }
  - { offsetInCU: 0xF055, offset: 0xF055, size: 0x8, addend: 0x0, symName: __ZNSt3__111char_traitsIcE2eqEcc, symObjAddr: 0x5DEC, symBinAddr: 0x100007278, symSize: 0x28 }
  - { offsetInCU: 0xF086, offset: 0xF086, size: 0x8, addend: 0x0, symName: __ZNKSt3__19basic_iosIcNS_11char_traitsIcEEE4failB7v160006Ev, symObjAddr: 0x5EC0, symBinAddr: 0x10000734C, symSize: 0x28 }
  - { offsetInCU: 0xF0AC, offset: 0xF0AC, size: 0x8, addend: 0x0, symName: __ZNKSt3__18ios_base4failB7v160006Ev, symObjAddr: 0x5EE8, symBinAddr: 0x100007374, symSize: 0x28 }
  - { offsetInCU: 0xF0D4, offset: 0xF0D4, size: 0x8, addend: 0x0, symName: __ZNSt3__19basic_iosIcNS_11char_traitsIcEEEC2B7v160006Ev, symObjAddr: 0x5F10, symBinAddr: 0x10000739C, symSize: 0x44 }
  - { offsetInCU: 0xF0FE, offset: 0xF0FE, size: 0x8, addend: 0x0, symName: __ZNSt3__113basic_istreamIcNS_11char_traitsIcEEEC2B7v160006EPNS_15basic_streambufIcS2_EE, symObjAddr: 0x5F54, symBinAddr: 0x1000073E0, symSize: 0x64 }
  - { offsetInCU: 0xF143, offset: 0xF143, size: 0x8, addend: 0x0, symName: __ZNSt3__115basic_stringbufIcNS_11char_traitsIcEENS_9allocatorIcEEEC1B7v160006ERKNS_12basic_stringIcS2_S4_EEj, symObjAddr: 0x5FB8, symBinAddr: 0x100007444, symSize: 0x3C }
  - { offsetInCU: 0xF189, offset: 0xF189, size: 0x8, addend: 0x0, symName: __ZNSt3__18ios_baseC2B7v160006Ev, symObjAddr: 0x5FF4, symBinAddr: 0x100007480, symSize: 0x24 }
  - { offsetInCU: 0xF1B3, offset: 0xF1B3, size: 0x8, addend: 0x0, symName: __ZNSt3__19basic_iosIcNS_11char_traitsIcEEE4initB7v160006EPNS_15basic_streambufIcS2_EE, symObjAddr: 0x6018, symBinAddr: 0x1000074A4, symSize: 0x44 }
  - { offsetInCU: 0xF1EA, offset: 0xF1EA, size: 0x8, addend: 0x0, symName: __ZNSt3__115basic_stringbufIcNS_11char_traitsIcEENS_9allocatorIcEEEC2B7v160006ERKNS_12basic_stringIcS2_S4_EEj, symObjAddr: 0x605C, symBinAddr: 0x1000074E8, symSize: 0xB4 }
  - { offsetInCU: 0xF230, offset: 0xF230, size: 0x8, addend: 0x0, symName: __ZNKSt3__112basic_stringIcNS_11char_traitsIcEENS_9allocatorIcEEE13get_allocatorB7v160006Ev, symObjAddr: 0x6110, symBinAddr: 0x10000759C, symSize: 0x24 }
  - { offsetInCU: 0xF256, offset: 0xF256, size: 0x8, addend: 0x0, symName: __ZNSt3__112basic_stringIcNS_11char_traitsIcEENS_9allocatorIcEEEC1B7v160006ERKS4_, symObjAddr: 0x6134, symBinAddr: 0x1000075C0, symSize: 0x34 }
  - { offsetInCU: 0xF28F, offset: 0xF28F, size: 0x8, addend: 0x0, symName: __ZNSt3__112basic_stringIcNS_11char_traitsIcEENS_9allocatorIcEEEC2B7v160006ERKS4_, symObjAddr: 0x6168, symBinAddr: 0x1000075F4, symSize: 0x50 }
  - { offsetInCU: 0xF2C8, offset: 0xF2C8, size: 0x8, addend: 0x0, symName: __ZNSt3__117__compressed_pairINS_12basic_stringIcNS_11char_traitsIcEENS_9allocatorIcEEE5__repES5_EC1B7v160006INS_18__default_init_tagERKS5_EEOT_OT0_, symObjAddr: 0x61B8, symBinAddr: 0x100007644, symSize: 0x3C }
  - { offsetInCU: 0xF320, offset: 0xF320, size: 0x8, addend: 0x0, symName: __ZNSt3__117__compressed_pairINS_12basic_stringIcNS_11char_traitsIcEENS_9allocatorIcEEE5__repES5_EC2B7v160006INS_18__default_init_tagERKS5_EEOT_OT0_, symObjAddr: 0x61F4, symBinAddr: 0x100007680, symSize: 0x40 }
  - { offsetInCU: 0xF378, offset: 0xF378, size: 0x8, addend: 0x0, symName: __ZNSt3__122__compressed_pair_elemINS_9allocatorIcEELi1ELb1EEC2B7v160006IRKS2_vEEOT_, symObjAddr: 0x6234, symBinAddr: 0x1000076C0, symSize: 0x18 }
...
