---
triple:          'arm64-apple-darwin'
binary-path:     '/Users/yordanstoilov/Desktop/headrush/Coding/C_preparation/CPP-OOP/02.ObjectsAndClassesAdvanced/Resources/build/ResourcesMain'
relocations:
  - { offsetInCU: 0x5C, offset: 0x5C, size: 0x8, addend: 0x0, symName: __ZNSt3__1L19piecewise_constructE, symObjAddr: 0x592D, symBinAddr: 0x100007BD5, symSize: 0x0 }
  - { offsetInCU: 0x2FE9, offset: 0x2FE9, size: 0x8, addend: 0x0, symName: __ZNSt3__124__put_character_sequenceB7v160006IcNS_11char_traitsIcEEEERNS_13basic_ostreamIT_T0_EES7_PKS4_m, symObjAddr: 0x1034, symBinAddr: 0x100002FF4, symSize: 0x1EC }
  - { offsetInCU: 0x9265, offset: 0x9265, size: 0x8, addend: 0x0, symName: __ZNSt3__1lsB7v160006INS_11char_traitsIcEEEERNS_13basic_ostreamIcT_EES6_PKc, symObjAddr: 0xB4, symBinAddr: 0x100002074, symSize: 0x48 }
  - { offsetInCU: 0x92AB, offset: 0x92AB, size: 0x8, addend: 0x0, symName: __ZNSt3__1rsB7v160006IcNS_11char_traitsIcEENS_9allocatorIcEEEERNS_13basic_istreamIT_T0_EES9_RNS_12basic_stringIS6_S7_T1_EE, symObjAddr: 0x270, symBinAddr: 0x100002230, symSize: 0x30C }
  - { offsetInCU: 0x9378, offset: 0x9378, size: 0x8, addend: 0x0, symName: __ZNSt3__1eqB7v160006IcNS_11char_traitsIcEENS_9allocatorIcEEEEbRKNS_12basic_stringIT_T0_T1_EEPKS6_, symObjAddr: 0x57C, symBinAddr: 0x10000253C, symSize: 0xAC }
  - { offsetInCU: 0x93DF, offset: 0x93DF, size: 0x8, addend: 0x0, symName: __ZNSt3__1lsB7v160006IcNS_11char_traitsIcEENS_9allocatorIcEEEERNS_13basic_ostreamIT_T0_EES9_RKNS_12basic_stringIS6_S7_T1_EE, symObjAddr: 0x688, symBinAddr: 0x100002648, symSize: 0x4C }
  - { offsetInCU: 0x9437, offset: 0x9437, size: 0x8, addend: 0x0, symName: __ZNSt3__1lsB7v160006INS_11char_traitsIcEEEERNS_13basic_ostreamIcT_EES6_c, symObjAddr: 0x6D4, symBinAddr: 0x100002694, symSize: 0x34 }
  - { offsetInCU: 0xA1B4, offset: 0xA1B4, size: 0x8, addend: 0x0, symName: __ZNSt3__1neB7v160006ERKNS_21__tree_const_iteratorIN7SoftUni8ResourceEPNS_11__tree_nodeIS2_PvEElEES9_, symObjAddr: 0xC5C, symBinAddr: 0x100002C1C, symSize: 0x34 }
  - { offsetInCU: 0xA1F1, offset: 0xA1F1, size: 0x8, addend: 0x0, symName: __ZNSt3__14endlB7v160006IcNS_11char_traitsIcEEEERNS_13basic_ostreamIT_T0_EES7_, symObjAddr: 0xDE8, symBinAddr: 0x100002DA8, symSize: 0x58 }
  - { offsetInCU: 0xA231, offset: 0xA231, size: 0x8, addend: 0x0, symName: __ZNSt3__1neB7v160006ERKNS_14__map_iteratorINS_15__tree_iteratorINS_12__value_typeIN7SoftUni12ResourceTypeEiEEPNS_11__tree_nodeIS5_PvEElEEEESD_, symObjAddr: 0xEB0, symBinAddr: 0x100002E70, symSize: 0x30 }
  - { offsetInCU: 0xA26E, offset: 0xA26E, size: 0x8, addend: 0x0, symName: __ZNSt3__116__pad_and_outputB7v160006IcNS_11char_traitsIcEEEENS_19ostreambuf_iteratorIT_T0_EES6_PKS4_S8_S8_RNS_8ios_baseES4_, symObjAddr: 0x1270, symBinAddr: 0x100003230, symSize: 0x240 }
  - { offsetInCU: 0xA33D, offset: 0xA33D, size: 0x8, addend: 0x0, symName: __ZNSt3__119__debug_db_insert_cB7v160006INS_12basic_stringIcNS_11char_traitsIcEENS_9allocatorIcEEEEEEvPT_, symObjAddr: 0x1730, symBinAddr: 0x1000036F0, symSize: 0x10 }
  - { offsetInCU: 0xA36E, offset: 0xA36E, size: 0x8, addend: 0x0, symName: __ZNSt3__112__to_addressB7v160006IcEEPT_S2_, symObjAddr: 0x17FC, symBinAddr: 0x1000037BC, symSize: 0x14 }
  - { offsetInCU: 0xA3D6, offset: 0xA3D6, size: 0x8, addend: 0x0, symName: __ZNSt3__19use_facetB7v160006INS_5ctypeIcEEEERKT_RKNS_6localeE, symObjAddr: 0x1AB4, symBinAddr: 0x100003A74, symSize: 0x2C }
  - { offsetInCU: 0xA7B6, offset: 0xA7B6, size: 0x8, addend: 0x0, symName: __ZNSt3__118__constexpr_strlenB7v160006EPKc, symObjAddr: 0x1B4C, symBinAddr: 0x100003B0C, symSize: 0x24 }
  - { offsetInCU: 0xAF56, offset: 0xAF56, size: 0x8, addend: 0x0, symName: __ZNSt3__125__debug_db_invalidate_allB7v160006INS_12basic_stringIcNS_11char_traitsIcEENS_9allocatorIcEEEEEEvPT_, symObjAddr: 0x1F68, symBinAddr: 0x100003F28, symSize: 0x10 }
  - { offsetInCU: 0xB173, offset: 0xB173, size: 0x8, addend: 0x0, symName: __ZNSt3__112__to_addressB7v160006IKcEEPT_S3_, symObjAddr: 0x222C, symBinAddr: 0x1000041EC, symSize: 0x14 }
  - { offsetInCU: 0xB20E, offset: 0xB20E, size: 0x8, addend: 0x0, symName: __ZNSt3__119__libcpp_deallocateB7v160006EPvmm, symObjAddr: 0x28D0, symBinAddr: 0x100004890, symSize: 0x60 }
  - { offsetInCU: 0xB273, offset: 0xB273, size: 0x8, addend: 0x0, symName: __ZNSt3__124__is_overaligned_for_newB7v160006Em, symObjAddr: 0x2930, symBinAddr: 0x1000048F0, symSize: 0x20 }
  - { offsetInCU: 0xB2A1, offset: 0xB2A1, size: 0x8, addend: 0x0, symName: __ZNSt3__127__do_deallocate_handle_sizeB7v160006IJSt11align_val_tEEEvPvmDpT_, symObjAddr: 0x2950, symBinAddr: 0x100004910, symSize: 0x30 }
  - { offsetInCU: 0xB2F4, offset: 0xB2F4, size: 0x8, addend: 0x0, symName: __ZNSt3__127__do_deallocate_handle_sizeB7v160006IJEEEvPvmDpT_, symObjAddr: 0x2980, symBinAddr: 0x100004940, symSize: 0x28 }
  - { offsetInCU: 0xB332, offset: 0xB332, size: 0x8, addend: 0x0, symName: __ZNSt3__124__libcpp_operator_deleteB7v160006IJPvSt11align_val_tEEEvDpT_, symObjAddr: 0x29A8, symBinAddr: 0x100004968, symSize: 0x2C }
  - { offsetInCU: 0xB37B, offset: 0xB37B, size: 0x8, addend: 0x0, symName: __ZNSt3__124__libcpp_operator_deleteB7v160006IJPvEEEvDpT_, symObjAddr: 0x29D4, symBinAddr: 0x100004994, symSize: 0x24 }
  - { offsetInCU: 0xB3B0, offset: 0xB3B0, size: 0x8, addend: 0x0, symName: __ZNSt3__17launderB7v160006INS_4pairIKN7SoftUni12ResourceTypeEiEEEEPT_S7_, symObjAddr: 0x2FA8, symBinAddr: 0x100004F68, symSize: 0x24 }
  - { offsetInCU: 0xB3E7, offset: 0xB3E7, size: 0x8, addend: 0x0, symName: __ZNSt3__19__launderB7v160006INS_4pairIKN7SoftUni12ResourceTypeEiEEEEPT_S7_, symObjAddr: 0x2FCC, symBinAddr: 0x100004F8C, symSize: 0x14 }
  - { offsetInCU: 0xB43C, offset: 0xB43C, size: 0x8, addend: 0x0, symName: __ZNSt3__117__libcpp_allocateB7v160006Emm, symObjAddr: 0x3924, symBinAddr: 0x1000058E4, symSize: 0x60 }
  - { offsetInCU: 0xB496, offset: 0xB496, size: 0x8, addend: 0x0, symName: __ZNSt3__121__libcpp_operator_newB7v160006IJmSt11align_val_tEEEPvDpT_, symObjAddr: 0x3998, symBinAddr: 0x100005958, symSize: 0x2C }
  - { offsetInCU: 0xB4E3, offset: 0xB4E3, size: 0x8, addend: 0x0, symName: __ZNSt3__121__libcpp_operator_newB7v160006IJmEEEPvDpT_, symObjAddr: 0x39C4, symBinAddr: 0x100005984, symSize: 0x24 }
  - { offsetInCU: 0xB51C, offset: 0xB51C, size: 0x8, addend: 0x0, symName: __ZNSt3__127__tree_balance_after_insertB7v160006IPNS_16__tree_node_baseIPvEEEEvT_S5_, symObjAddr: 0x3BD8, symBinAddr: 0x100005B98, symSize: 0x32C }
  - { offsetInCU: 0xB598, offset: 0xB598, size: 0x8, addend: 0x0, symName: __ZNSt3__120__tree_is_left_childB7v160006IPNS_16__tree_node_baseIPvEEEEbT_, symObjAddr: 0x3F44, symBinAddr: 0x100005F04, symSize: 0x2C }
  - { offsetInCU: 0xB5CD, offset: 0xB5CD, size: 0x8, addend: 0x0, symName: __ZNSt3__118__tree_left_rotateB7v160006IPNS_16__tree_node_baseIPvEEEEvT_, symObjAddr: 0x3F70, symBinAddr: 0x100005F30, symSize: 0xD8 }
  - { offsetInCU: 0xB60F, offset: 0xB60F, size: 0x8, addend: 0x0, symName: __ZNSt3__119__tree_right_rotateB7v160006IPNS_16__tree_node_baseIPvEEEEvT_, symObjAddr: 0x4048, symBinAddr: 0x100006008, symSize: 0xCC }
  - { offsetInCU: 0xB651, offset: 0xB651, size: 0x8, addend: 0x0, symName: __ZNSt3__1eqB7v160006ERKNS_21__tree_const_iteratorIN7SoftUni8ResourceEPNS_11__tree_nodeIS2_PvEElEES9_, symObjAddr: 0x448C, symBinAddr: 0x10000644C, symSize: 0x30 }
  - { offsetInCU: 0xB68E, offset: 0xB68E, size: 0x8, addend: 0x0, symName: __ZNSt3__116__tree_next_iterB7v160006IPNS_15__tree_end_nodeIPNS_16__tree_node_baseIPvEEEES5_EET_T0_, symObjAddr: 0x44BC, symBinAddr: 0x10000647C, symSize: 0x80 }
  - { offsetInCU: 0xB6CC, offset: 0xB6CC, size: 0x8, addend: 0x0, symName: __ZNSt3__110__tree_minB7v160006IPNS_16__tree_node_baseIPvEEEET_S5_, symObjAddr: 0x453C, symBinAddr: 0x1000064FC, symSize: 0x40 }
  - { offsetInCU: 0xB738, offset: 0xB738, size: 0x8, addend: 0x0, symName: __ZNSt3__116forward_as_tupleB7v160006IJN7SoftUni12ResourceTypeEEEENS_5tupleIJDpOT_EEES6_, symObjAddr: 0x4694, symBinAddr: 0x100006654, symSize: 0x2C }
  - { offsetInCU: 0xB771, offset: 0xB771, size: 0x8, addend: 0x0, symName: __ZNSt3__116forward_as_tupleB7v160006IJEEENS_5tupleIJDpOT_EEES4_, symObjAddr: 0x46C0, symBinAddr: 0x100006680, symSize: 0x4 }
  - { offsetInCU: 0xB795, offset: 0xB795, size: 0x8, addend: 0x0, symName: __ZNSt3__17launderB7v160006IKNS_4pairIKN7SoftUni12ResourceTypeEiEEEEPT_S8_, symObjAddr: 0x4CDC, symBinAddr: 0x100006C9C, symSize: 0x24 }
  - { offsetInCU: 0xB7CC, offset: 0xB7CC, size: 0x8, addend: 0x0, symName: __ZNSt3__19__launderB7v160006IKNS_4pairIKN7SoftUni12ResourceTypeEiEEEEPT_S8_, symObjAddr: 0x4D00, symBinAddr: 0x100006CC0, symSize: 0x14 }
  - { offsetInCU: 0xB82C, offset: 0xB82C, size: 0x8, addend: 0x0, symName: __ZNSt3__13getB7v160006ILm0EJON7SoftUni12ResourceTypeEEEERNS_13tuple_elementIXT_ENS_5tupleIJDpT0_EEEE4typeERS8_, symObjAddr: 0x5144, symBinAddr: 0x100007104, symSize: 0x24 }
  - { offsetInCU: 0xB8C6, offset: 0xB8C6, size: 0x8, addend: 0x0, symName: __ZNSt3__1neB7v160006ERKNS_15__tree_iteratorINS_12__value_typeIN7SoftUni12ResourceTypeEiEEPNS_11__tree_nodeIS4_PvEElEESB_, symObjAddr: 0x5638, symBinAddr: 0x1000075F8, symSize: 0x34 }
  - { offsetInCU: 0xB903, offset: 0xB903, size: 0x8, addend: 0x0, symName: __ZNSt3__1eqB7v160006ERKNS_15__tree_iteratorINS_12__value_typeIN7SoftUni12ResourceTypeEiEEPNS_11__tree_nodeIS4_PvEElEESB_, symObjAddr: 0x566C, symBinAddr: 0x10000762C, symSize: 0x30 }
  - { offsetInCU: 0xBA8C, offset: 0xBA8C, size: 0x8, addend: 0x0, symName: __ZSt28__throw_bad_array_new_lengthB7v160006v, symObjAddr: 0x38F0, symBinAddr: 0x1000058B0, symSize: 0x34 }
  - { offsetInCU: 0xBE17, offset: 0xBE17, size: 0x8, addend: 0x0, symName: __ZN7SoftUnilsERNSt3__113basic_ostreamIcNS0_11char_traitsIcEEEENS_12ResourceTypeE, symObjAddr: 0x0, symBinAddr: 0x100001FC0, symSize: 0xB4 }
  - { offsetInCU: 0xBE51, offset: 0xBE51, size: 0x8, addend: 0x0, symName: __ZN7SoftUnirsERNSt3__113basic_istreamIcNS0_11char_traitsIcEEEERNS_8ResourceE, symObjAddr: 0xFC, symBinAddr: 0x1000020BC, symSize: 0x148 }
  - { offsetInCU: 0xBEB8, offset: 0xBEB8, size: 0x8, addend: 0x0, symName: __ZN7SoftUnilsERNSt3__113basic_ostreamIcNS0_11char_traitsIcEEEERKNS_8ResourceE, symObjAddr: 0x628, symBinAddr: 0x1000025E8, symSize: 0x60 }
  - { offsetInCU: 0xE8E4, offset: 0xE8E4, size: 0x8, addend: 0x0, symName: __ZNSt3__112basic_stringIcNS_11char_traitsIcEENS_9allocatorIcEEEC1B7v160006Ev, symObjAddr: 0x244, symBinAddr: 0x100002204, symSize: 0x2C }
  - { offsetInCU: 0xE90E, offset: 0xE90E, size: 0x8, addend: 0x0, symName: _main, symObjAddr: 0x708, symBinAddr: 0x1000026C8, symSize: 0x3E8 }
  - { offsetInCU: 0xEBA6, offset: 0xEBA6, size: 0x8, addend: 0x0, symName: __ZNSt3__13setIN7SoftUni8ResourceENS_4lessIS2_EENS_9allocatorIS2_EEEC1B7v160006Ev, symObjAddr: 0xAF0, symBinAddr: 0x100002AB0, symSize: 0x2C }
  - { offsetInCU: 0xEBD0, offset: 0xEBD0, size: 0x8, addend: 0x0, symName: __ZNSt3__13mapIN7SoftUni12ResourceTypeEiNS_4lessIS2_EENS_9allocatorINS_4pairIKS2_iEEEEEC1B7v160006Ev, symObjAddr: 0xB1C, symBinAddr: 0x100002ADC, symSize: 0x2C }
  - { offsetInCU: 0xEBFF, offset: 0xEBFF, size: 0x8, addend: 0x0, symName: __ZN7SoftUni8ResourceC1Ev, symObjAddr: 0xB48, symBinAddr: 0x100002B08, symSize: 0x2C }
  - { offsetInCU: 0xEC2B, offset: 0xEC2B, size: 0x8, addend: 0x0, symName: __ZNSt3__13setIN7SoftUni8ResourceENS_4lessIS2_EENS_9allocatorIS2_EEE6insertB7v160006ERKS2_, symObjAddr: 0xB74, symBinAddr: 0x100002B34, symSize: 0x4C }
  - { offsetInCU: 0xEC60, offset: 0xEC60, size: 0x8, addend: 0x0, symName: __ZN7SoftUni8ResourceD1Ev, symObjAddr: 0xBC0, symBinAddr: 0x100002B80, symSize: 0x2C }
  - { offsetInCU: 0xEC8C, offset: 0xEC8C, size: 0x8, addend: 0x0, symName: __ZNSt3__13setIN7SoftUni8ResourceENS_4lessIS2_EENS_9allocatorIS2_EEE5beginB7v160006Ev, symObjAddr: 0xBEC, symBinAddr: 0x100002BAC, symSize: 0x38 }
  - { offsetInCU: 0xECB2, offset: 0xECB2, size: 0x8, addend: 0x0, symName: __ZNSt3__13setIN7SoftUni8ResourceENS_4lessIS2_EENS_9allocatorIS2_EEE3endB7v160006Ev, symObjAddr: 0xC24, symBinAddr: 0x100002BE4, symSize: 0x38 }
  - { offsetInCU: 0xECD8, offset: 0xECD8, size: 0x8, addend: 0x0, symName: __ZNKSt3__121__tree_const_iteratorIN7SoftUni8ResourceEPNS_11__tree_nodeIS2_PvEElEdeB7v160006Ev, symObjAddr: 0xC90, symBinAddr: 0x100002C50, symSize: 0x28 }
  - { offsetInCU: 0xECFE, offset: 0xECFE, size: 0x8, addend: 0x0, symName: __ZN7SoftUni8ResourceC1ERKS0_, symObjAddr: 0xCB8, symBinAddr: 0x100002C78, symSize: 0x34 }
  - { offsetInCU: 0xED33, offset: 0xED33, size: 0x8, addend: 0x0, symName: __ZNSt3__13mapIN7SoftUni12ResourceTypeEiNS_4lessIS2_EENS_9allocatorINS_4pairIKS2_iEEEEEixEOS2_, symObjAddr: 0xCEC, symBinAddr: 0x100002CAC, symSize: 0x80 }
  - { offsetInCU: 0xED6A, offset: 0xED6A, size: 0x8, addend: 0x0, symName: __ZNK7SoftUni8Resource7getTypeEv, symObjAddr: 0xD6C, symBinAddr: 0x100002D2C, symSize: 0x18 }
  - { offsetInCU: 0xED90, offset: 0xED90, size: 0x8, addend: 0x0, symName: __ZNSt3__121__tree_const_iteratorIN7SoftUni8ResourceEPNS_11__tree_nodeIS2_PvEElEppB7v160006Ev, symObjAddr: 0xD84, symBinAddr: 0x100002D44, symSize: 0x38 }
  - { offsetInCU: 0xEDB6, offset: 0xEDB6, size: 0x8, addend: 0x0, symName: __ZNSt3__113basic_ostreamIcNS_11char_traitsIcEEElsB7v160006EPFRS3_S4_E, symObjAddr: 0xDBC, symBinAddr: 0x100002D7C, symSize: 0x2C }
  - { offsetInCU: 0xEDEA, offset: 0xEDEA, size: 0x8, addend: 0x0, symName: __ZNSt3__13mapIN7SoftUni12ResourceTypeEiNS_4lessIS2_EENS_9allocatorINS_4pairIKS2_iEEEEE5beginB7v160006Ev, symObjAddr: 0xE40, symBinAddr: 0x100002E00, symSize: 0x38 }
  - { offsetInCU: 0xEE10, offset: 0xEE10, size: 0x8, addend: 0x0, symName: __ZNSt3__13mapIN7SoftUni12ResourceTypeEiNS_4lessIS2_EENS_9allocatorINS_4pairIKS2_iEEEEE3endB7v160006Ev, symObjAddr: 0xE78, symBinAddr: 0x100002E38, symSize: 0x38 }
  - { offsetInCU: 0xEE36, offset: 0xEE36, size: 0x8, addend: 0x0, symName: __ZNKSt3__114__map_iteratorINS_15__tree_iteratorINS_12__value_typeIN7SoftUni12ResourceTypeEiEEPNS_11__tree_nodeIS5_PvEElEEEdeB7v160006Ev, symObjAddr: 0xEE0, symBinAddr: 0x100002EA0, symSize: 0x28 }
  - { offsetInCU: 0xEE5C, offset: 0xEE5C, size: 0x8, addend: 0x0, symName: __ZNSt3__114__map_iteratorINS_15__tree_iteratorINS_12__value_typeIN7SoftUni12ResourceTypeEiEEPNS_11__tree_nodeIS5_PvEElEEEppB7v160006Ev, symObjAddr: 0xF08, symBinAddr: 0x100002EC8, symSize: 0x2C }
  - { offsetInCU: 0xEE82, offset: 0xEE82, size: 0x8, addend: 0x0, symName: __ZNSt3__13mapIN7SoftUni12ResourceTypeEiNS_4lessIS2_EENS_9allocatorINS_4pairIKS2_iEEEEED1B7v160006Ev, symObjAddr: 0xF34, symBinAddr: 0x100002EF4, symSize: 0x2C }
  - { offsetInCU: 0xEEAC, offset: 0xEEAC, size: 0x8, addend: 0x0, symName: __ZNSt3__13setIN7SoftUni8ResourceENS_4lessIS2_EENS_9allocatorIS2_EEED1B7v160006Ev, symObjAddr: 0xF60, symBinAddr: 0x100002F20, symSize: 0x2C }
  - { offsetInCU: 0xEED6, offset: 0xEED6, size: 0x8, addend: 0x0, symName: __ZN7SoftUni8ResourceC2Ev, symObjAddr: 0xF8C, symBinAddr: 0x100002F4C, symSize: 0x30 }
  - { offsetInCU: 0xEF02, offset: 0xEF02, size: 0x8, addend: 0x0, symName: __ZN7SoftUni8ResourceD2Ev, symObjAddr: 0xFBC, symBinAddr: 0x100002F7C, symSize: 0x30 }
  - { offsetInCU: 0xEF2E, offset: 0xEF2E, size: 0x8, addend: 0x0, symName: __ZN7SoftUni8ResourceC2ERKS0_, symObjAddr: 0xFEC, symBinAddr: 0x100002FAC, symSize: 0x48 }
  - { offsetInCU: 0xEF63, offset: 0xEF63, size: 0x8, addend: 0x0, symName: __ZNSt3__111char_traitsIcE6lengthEPKc, symObjAddr: 0x1220, symBinAddr: 0x1000031E0, symSize: 0x34 }
  - { offsetInCU: 0xEFA4, offset: 0xEFA4, size: 0x8, addend: 0x0, symName: __ZNKSt3__113basic_ostreamIcNS_11char_traitsIcEEE6sentrycvbB7v160006Ev, symObjAddr: 0x1254, symBinAddr: 0x100003214, symSize: 0x1C }
  - { offsetInCU: 0xEFCA, offset: 0xEFCA, size: 0x8, addend: 0x0, symName: __ZNSt3__119ostreambuf_iteratorIcNS_11char_traitsIcEEEC1B7v160006ERNS_13basic_ostreamIcS2_EE, symObjAddr: 0x14B0, symBinAddr: 0x100003470, symSize: 0x34 }
  - { offsetInCU: 0xF002, offset: 0xF002, size: 0x8, addend: 0x0, symName: __ZNKSt3__18ios_base5flagsB7v160006Ev, symObjAddr: 0x14E4, symBinAddr: 0x1000034A4, symSize: 0x18 }
  - { offsetInCU: 0xF02A, offset: 0xF02A, size: 0x8, addend: 0x0, symName: __ZNKSt3__19basic_iosIcNS_11char_traitsIcEEE4fillB7v160006Ev, symObjAddr: 0x14FC, symBinAddr: 0x1000034BC, symSize: 0x64 }
  - { offsetInCU: 0xF052, offset: 0xF052, size: 0x8, addend: 0x0, symName: __ZNKSt3__119ostreambuf_iteratorIcNS_11char_traitsIcEEE6failedB7v160006Ev, symObjAddr: 0x1560, symBinAddr: 0x100003520, symSize: 0x24 }
  - { offsetInCU: 0xF078, offset: 0xF078, size: 0x8, addend: 0x0, symName: __ZNSt3__19basic_iosIcNS_11char_traitsIcEEE8setstateB7v160006Ej, symObjAddr: 0x1584, symBinAddr: 0x100003544, symSize: 0x2C }
  - { offsetInCU: 0xF0AD, offset: 0xF0AD, size: 0x8, addend: 0x0, symName: __ZNKSt3__18ios_base5widthB7v160006Ev, symObjAddr: 0x15BC, symBinAddr: 0x10000357C, symSize: 0x18 }
  - { offsetInCU: 0xF0D5, offset: 0xF0D5, size: 0x8, addend: 0x0, symName: __ZNSt3__115basic_streambufIcNS_11char_traitsIcEEE5sputnB7v160006EPKcl, symObjAddr: 0x15D4, symBinAddr: 0x100003594, symSize: 0x3C }
  - { offsetInCU: 0xF117, offset: 0xF117, size: 0x8, addend: 0x0, symName: __ZNSt3__112basic_stringIcNS_11char_traitsIcEENS_9allocatorIcEEEC1B7v160006Emc, symObjAddr: 0x1610, symBinAddr: 0x1000035D0, symSize: 0x3C }
  - { offsetInCU: 0xF15F, offset: 0xF15F, size: 0x8, addend: 0x0, symName: __ZNSt3__112basic_stringIcNS_11char_traitsIcEENS_9allocatorIcEEE4dataB7v160006Ev, symObjAddr: 0x164C, symBinAddr: 0x10000360C, symSize: 0x28 }
  - { offsetInCU: 0xF185, offset: 0xF185, size: 0x8, addend: 0x0, symName: __ZNSt3__18ios_base5widthB7v160006El, symObjAddr: 0x1674, symBinAddr: 0x100003634, symSize: 0x2C }
  - { offsetInCU: 0xF1CB, offset: 0xF1CB, size: 0x8, addend: 0x0, symName: __ZNSt3__112basic_stringIcNS_11char_traitsIcEENS_9allocatorIcEEEC2B7v160006Emc, symObjAddr: 0x16A0, symBinAddr: 0x100003660, symSize: 0x54 }
  - { offsetInCU: 0xF218, offset: 0xF218, size: 0x8, addend: 0x0, symName: __ZNSt3__117__compressed_pairINS_12basic_stringIcNS_11char_traitsIcEENS_9allocatorIcEEE5__repES5_EC1B7v160006INS_18__default_init_tagESA_EEOT_OT0_, symObjAddr: 0x16F4, symBinAddr: 0x1000036B4, symSize: 0x3C }
  - { offsetInCU: 0xF270, offset: 0xF270, size: 0x8, addend: 0x0, symName: __ZNSt3__117__compressed_pairINS_12basic_stringIcNS_11char_traitsIcEENS_9allocatorIcEEE5__repES5_EC2B7v160006INS_18__default_init_tagESA_EEOT_OT0_, symObjAddr: 0x1740, symBinAddr: 0x100003700, symSize: 0x3C }
  - { offsetInCU: 0xF2C8, offset: 0xF2C8, size: 0x8, addend: 0x0, symName: __ZNSt3__122__compressed_pair_elemINS_12basic_stringIcNS_11char_traitsIcEENS_9allocatorIcEEE5__repELi0ELb0EEC2B7v160006ENS_18__default_init_tagE, symObjAddr: 0x177C, symBinAddr: 0x10000373C, symSize: 0x14 }
  - { offsetInCU: 0xF2FD, offset: 0xF2FD, size: 0x8, addend: 0x0, symName: __ZNSt3__122__compressed_pair_elemINS_9allocatorIcEELi1ELb1EEC2B7v160006ENS_18__default_init_tagE, symObjAddr: 0x1790, symBinAddr: 0x100003750, symSize: 0x2C }
  - { offsetInCU: 0xF332, offset: 0xF332, size: 0x8, addend: 0x0, symName: __ZNSt3__19allocatorIcEC2B7v160006Ev, symObjAddr: 0x17BC, symBinAddr: 0x10000377C, symSize: 0x2C }
  - { offsetInCU: 0xF35C, offset: 0xF35C, size: 0x8, addend: 0x0, symName: __ZNSt3__116__non_trivial_ifILb1ENS_9allocatorIcEEEC2B7v160006Ev, symObjAddr: 0x17E8, symBinAddr: 0x1000037A8, symSize: 0x14 }
  - { offsetInCU: 0xF386, offset: 0xF386, size: 0x8, addend: 0x0, symName: __ZNSt3__112basic_stringIcNS_11char_traitsIcEENS_9allocatorIcEEE13__get_pointerB7v160006Ev, symObjAddr: 0x1810, symBinAddr: 0x1000037D0, symSize: 0x54 }
  - { offsetInCU: 0xF3AC, offset: 0xF3AC, size: 0x8, addend: 0x0, symName: __ZNKSt3__112basic_stringIcNS_11char_traitsIcEENS_9allocatorIcEEE9__is_longB7v160006Ev, symObjAddr: 0x1864, symBinAddr: 0x100003824, symSize: 0x38 }
  - { offsetInCU: 0xF3D2, offset: 0xF3D2, size: 0x8, addend: 0x0, symName: __ZNSt3__112basic_stringIcNS_11char_traitsIcEENS_9allocatorIcEEE18__get_long_pointerB7v160006Ev, symObjAddr: 0x189C, symBinAddr: 0x10000385C, symSize: 0x28 }
  - { offsetInCU: 0xF3F8, offset: 0xF3F8, size: 0x8, addend: 0x0, symName: __ZNSt3__112basic_stringIcNS_11char_traitsIcEENS_9allocatorIcEEE19__get_short_pointerB7v160006Ev, symObjAddr: 0x18C4, symBinAddr: 0x100003884, symSize: 0x28 }
  - { offsetInCU: 0xF41E, offset: 0xF41E, size: 0x8, addend: 0x0, symName: __ZNKSt3__117__compressed_pairINS_12basic_stringIcNS_11char_traitsIcEENS_9allocatorIcEEE5__repES5_E5firstB7v160006Ev, symObjAddr: 0x18EC, symBinAddr: 0x1000038AC, symSize: 0x24 }
  - { offsetInCU: 0xF444, offset: 0xF444, size: 0x8, addend: 0x0, symName: __ZNKSt3__122__compressed_pair_elemINS_12basic_stringIcNS_11char_traitsIcEENS_9allocatorIcEEE5__repELi0ELb0EE5__getB7v160006Ev, symObjAddr: 0x1910, symBinAddr: 0x1000038D0, symSize: 0x14 }
  - { offsetInCU: 0xF46A, offset: 0xF46A, size: 0x8, addend: 0x0, symName: __ZNSt3__117__compressed_pairINS_12basic_stringIcNS_11char_traitsIcEENS_9allocatorIcEEE5__repES5_E5firstB7v160006Ev, symObjAddr: 0x1924, symBinAddr: 0x1000038E4, symSize: 0x24 }
  - { offsetInCU: 0xF490, offset: 0xF490, size: 0x8, addend: 0x0, symName: __ZNSt3__122__compressed_pair_elemINS_12basic_stringIcNS_11char_traitsIcEENS_9allocatorIcEEE5__repELi0ELb0EE5__getB7v160006Ev, symObjAddr: 0x1948, symBinAddr: 0x100003908, symSize: 0x14 }
  - { offsetInCU: 0xF4B6, offset: 0xF4B6, size: 0x8, addend: 0x0, symName: __ZNSt3__114pointer_traitsIPcE10pointer_toB7v160006ERc, symObjAddr: 0x195C, symBinAddr: 0x10000391C, symSize: 0x14 }
  - { offsetInCU: 0xF4D9, offset: 0xF4D9, size: 0x8, addend: 0x0, symName: __ZNSt3__119ostreambuf_iteratorIcNS_11char_traitsIcEEEC2B7v160006ERNS_13basic_ostreamIcS2_EE, symObjAddr: 0x1970, symBinAddr: 0x100003930, symSize: 0x54 }
  - { offsetInCU: 0xF511, offset: 0xF511, size: 0x8, addend: 0x0, symName: __ZNKSt3__19basic_iosIcNS_11char_traitsIcEEE5rdbufB7v160006Ev, symObjAddr: 0x19C4, symBinAddr: 0x100003984, symSize: 0x24 }
  - { offsetInCU: 0xF539, offset: 0xF539, size: 0x8, addend: 0x0, symName: __ZNKSt3__18ios_base5rdbufB7v160006Ev, symObjAddr: 0x19E8, symBinAddr: 0x1000039A8, symSize: 0x18 }
  - { offsetInCU: 0xF55F, offset: 0xF55F, size: 0x8, addend: 0x0, symName: __ZNSt3__111char_traitsIcE11eq_int_typeEii, symObjAddr: 0x1A00, symBinAddr: 0x1000039C0, symSize: 0x28 }
  - { offsetInCU: 0xF590, offset: 0xF590, size: 0x8, addend: 0x0, symName: __ZNSt3__111char_traitsIcE3eofEv, symObjAddr: 0x1A28, symBinAddr: 0x1000039E8, symSize: 0x8 }
  - { offsetInCU: 0xF5A4, offset: 0xF5A4, size: 0x8, addend: 0x0, symName: __ZNKSt3__19basic_iosIcNS_11char_traitsIcEEE5widenB7v160006Ec, symObjAddr: 0x1A30, symBinAddr: 0x1000039F0, symSize: 0x84 }
  - { offsetInCU: 0xF608, offset: 0xF608, size: 0x8, addend: 0x0, symName: __ZNKSt3__15ctypeIcE5widenB7v160006Ec, symObjAddr: 0x1AE0, symBinAddr: 0x100003AA0, symSize: 0x38 }
  - { offsetInCU: 0xF63D, offset: 0xF63D, size: 0x8, addend: 0x0, symName: __ZNSt3__18ios_base8setstateB7v160006Ej, symObjAddr: 0x1B18, symBinAddr: 0x100003AD8, symSize: 0x34 }
  - { offsetInCU: 0xF674, offset: 0xF674, size: 0x8, addend: 0x0, symName: __ZNSt3__112basic_stringIcNS_11char_traitsIcEENS_9allocatorIcEEEC2B7v160006Ev, symObjAddr: 0x1B70, symBinAddr: 0x100003B30, symSize: 0x50 }
  - { offsetInCU: 0xF69E, offset: 0xF69E, size: 0x8, addend: 0x0, symName: __ZNSt3__112basic_stringIcNS_11char_traitsIcEENS_9allocatorIcEEE14__default_initB7v160006Ev, symObjAddr: 0x1BC0, symBinAddr: 0x100003B80, symSize: 0x40 }
  - { offsetInCU: 0xF752, offset: 0xF752, size: 0x8, addend: 0x0, symName: __ZNKSt3__113basic_istreamIcNS_11char_traitsIcEEE6sentrycvbB7v160006Ev, symObjAddr: 0x1C00, symBinAddr: 0x100003BC0, symSize: 0x1C }
  - { offsetInCU: 0xF778, offset: 0xF778, size: 0x8, addend: 0x0, symName: __ZNSt3__112basic_stringIcNS_11char_traitsIcEENS_9allocatorIcEEE5clearB7v160006Ev, symObjAddr: 0x1C1C, symBinAddr: 0x100003BDC, symSize: 0x88 }
  - { offsetInCU: 0xF7A0, offset: 0xF7A0, size: 0x8, addend: 0x0, symName: __ZNKSt3__112basic_stringIcNS_11char_traitsIcEENS_9allocatorIcEEE8max_sizeB7v160006Ev, symObjAddr: 0x1CA4, symBinAddr: 0x100003C64, symSize: 0xAC }
  - { offsetInCU: 0xF7F2, offset: 0xF7F2, size: 0x8, addend: 0x0, symName: __ZNSt3__114numeric_limitsIlE3maxB7v160006Ev, symObjAddr: 0x1D50, symBinAddr: 0x100003D10, symSize: 0x14 }
  - { offsetInCU: 0xF806, offset: 0xF806, size: 0x8, addend: 0x0, symName: __ZNSt3__115basic_streambufIcNS_11char_traitsIcEEE5sgetcB7v160006Ev, symObjAddr: 0x1D64, symBinAddr: 0x100003D24, symSize: 0x70 }
  - { offsetInCU: 0xF82C, offset: 0xF82C, size: 0x8, addend: 0x0, symName: __ZNSt3__111char_traitsIcE12to_char_typeEi, symObjAddr: 0x1DD4, symBinAddr: 0x100003D94, symSize: 0x18 }
  - { offsetInCU: 0xF84F, offset: 0xF84F, size: 0x8, addend: 0x0, symName: __ZNKSt3__15ctypeIcE2isB7v160006Ejc, symObjAddr: 0x1DEC, symBinAddr: 0x100003DAC, symSize: 0x7C }
  - { offsetInCU: 0xF893, offset: 0xF893, size: 0x8, addend: 0x0, symName: __ZNSt3__115basic_streambufIcNS_11char_traitsIcEEE6sbumpcB7v160006Ev, symObjAddr: 0x1E68, symBinAddr: 0x100003E28, symSize: 0x78 }
  - { offsetInCU: 0xF8B9, offset: 0xF8B9, size: 0x8, addend: 0x0, symName: __ZNSt3__18ios_base18__setstate_nothrowB7v160006Ej, symObjAddr: 0x1EE0, symBinAddr: 0x100003EA0, symSize: 0x64 }
  - { offsetInCU: 0xF8EE, offset: 0xF8EE, size: 0x8, addend: 0x0, symName: __ZNKSt3__19basic_iosIcNS_11char_traitsIcEEE10exceptionsB7v160006Ev, symObjAddr: 0x1F44, symBinAddr: 0x100003F04, symSize: 0x24 }
  - { offsetInCU: 0xF914, offset: 0xF914, size: 0x8, addend: 0x0, symName: __ZNSt3__111char_traitsIcE6assignERcRKc, symObjAddr: 0x1F78, symBinAddr: 0x100003F38, symSize: 0x24 }
  - { offsetInCU: 0xF945, offset: 0xF945, size: 0x8, addend: 0x0, symName: __ZNSt3__112basic_stringIcNS_11char_traitsIcEENS_9allocatorIcEEE15__set_long_sizeB7v160006Em, symObjAddr: 0x1F9C, symBinAddr: 0x100003F5C, symSize: 0x38 }
  - { offsetInCU: 0xF97A, offset: 0xF97A, size: 0x8, addend: 0x0, symName: __ZNSt3__112basic_stringIcNS_11char_traitsIcEENS_9allocatorIcEEE16__set_short_sizeB7v160006Em, symObjAddr: 0x1FD4, symBinAddr: 0x100003F94, symSize: 0x78 }
  - { offsetInCU: 0xF9B9, offset: 0xF9B9, size: 0x8, addend: 0x0, symName: __ZNSt3__116allocator_traitsINS_9allocatorIcEEE8max_sizeB7v160006IS2_vEEmRKS2_, symObjAddr: 0x204C, symBinAddr: 0x10000400C, symSize: 0x24 }
  - { offsetInCU: 0xF9E7, offset: 0xF9E7, size: 0x8, addend: 0x0, symName: __ZNKSt3__112basic_stringIcNS_11char_traitsIcEENS_9allocatorIcEEE7__allocB7v160006Ev, symObjAddr: 0x2070, symBinAddr: 0x100004030, symSize: 0x24 }
  - { offsetInCU: 0xFA0D, offset: 0xFA0D, size: 0x8, addend: 0x0, symName: __ZNSt3__114numeric_limitsImE3maxB7v160006Ev, symObjAddr: 0x2094, symBinAddr: 0x100004054, symSize: 0x14 }
  - { offsetInCU: 0xFA21, offset: 0xFA21, size: 0x8, addend: 0x0, symName: __ZNKSt3__19allocatorIcE8max_sizeB7v160006Ev, symObjAddr: 0x20A8, symBinAddr: 0x100004068, symSize: 0x14 }
  - { offsetInCU: 0xFA47, offset: 0xFA47, size: 0x8, addend: 0x0, symName: __ZNKSt3__117__compressed_pairINS_12basic_stringIcNS_11char_traitsIcEENS_9allocatorIcEEE5__repES5_E6secondB7v160006Ev, symObjAddr: 0x20BC, symBinAddr: 0x10000407C, symSize: 0x24 }
  - { offsetInCU: 0xFA6D, offset: 0xFA6D, size: 0x8, addend: 0x0, symName: __ZNKSt3__122__compressed_pair_elemINS_9allocatorIcEELi1ELb1EE5__getB7v160006Ev, symObjAddr: 0x20E0, symBinAddr: 0x1000040A0, symSize: 0x14 }
  - { offsetInCU: 0xFA93, offset: 0xFA93, size: 0x8, addend: 0x0, symName: __ZNSt3__123__libcpp_numeric_limitsImLb1EE3maxB7v160006Ev, symObjAddr: 0x20F4, symBinAddr: 0x1000040B4, symSize: 0x8 }
  - { offsetInCU: 0xFAA7, offset: 0xFAA7, size: 0x8, addend: 0x0, symName: __ZNSt3__123__libcpp_numeric_limitsIlLb1EE3maxB7v160006Ev, symObjAddr: 0x20FC, symBinAddr: 0x1000040BC, symSize: 0x8 }
  - { offsetInCU: 0xFABB, offset: 0xFABB, size: 0x8, addend: 0x0, symName: __ZNSt3__111char_traitsIcE11to_int_typeEc, symObjAddr: 0x2104, symBinAddr: 0x1000040C4, symSize: 0x14 }
  - { offsetInCU: 0xFADD, offset: 0xFADD, size: 0x8, addend: 0x0, symName: __Z7isasciii, symObjAddr: 0x2118, symBinAddr: 0x1000040D8, symSize: 0x24 }
  - { offsetInCU: 0xFB0A, offset: 0xFB0A, size: 0x8, addend: 0x0, symName: __ZNKSt3__18ios_base10exceptionsB7v160006Ev, symObjAddr: 0x213C, symBinAddr: 0x1000040FC, symSize: 0x18 }
  - { offsetInCU: 0xFB32, offset: 0xFB32, size: 0x8, addend: 0x0, symName: __ZNKSt3__112basic_stringIcNS_11char_traitsIcEENS_9allocatorIcEEE4sizeB7v160006Ev, symObjAddr: 0x2154, symBinAddr: 0x100004114, symSize: 0x54 }
  - { offsetInCU: 0xFB58, offset: 0xFB58, size: 0x8, addend: 0x0, symName: __ZNKSt3__112basic_stringIcNS_11char_traitsIcEENS_9allocatorIcEEE15__get_long_sizeB7v160006Ev, symObjAddr: 0x21A8, symBinAddr: 0x100004168, symSize: 0x28 }
  - { offsetInCU: 0xFB7E, offset: 0xFB7E, size: 0x8, addend: 0x0, symName: __ZNKSt3__112basic_stringIcNS_11char_traitsIcEENS_9allocatorIcEEE16__get_short_sizeB7v160006Ev, symObjAddr: 0x21D0, symBinAddr: 0x100004190, symSize: 0x34 }
  - { offsetInCU: 0xFBA4, offset: 0xFBA4, size: 0x8, addend: 0x0, symName: __ZNKSt3__112basic_stringIcNS_11char_traitsIcEENS_9allocatorIcEEE4dataB7v160006Ev, symObjAddr: 0x2204, symBinAddr: 0x1000041C4, symSize: 0x28 }
  - { offsetInCU: 0xFBCA, offset: 0xFBCA, size: 0x8, addend: 0x0, symName: __ZNKSt3__112basic_stringIcNS_11char_traitsIcEENS_9allocatorIcEEE13__get_pointerB7v160006Ev, symObjAddr: 0x2240, symBinAddr: 0x100004200, symSize: 0x54 }
  - { offsetInCU: 0xFBF0, offset: 0xFBF0, size: 0x8, addend: 0x0, symName: __ZNKSt3__112basic_stringIcNS_11char_traitsIcEENS_9allocatorIcEEE18__get_long_pointerB7v160006Ev, symObjAddr: 0x2294, symBinAddr: 0x100004254, symSize: 0x28 }
  - { offsetInCU: 0xFC16, offset: 0xFC16, size: 0x8, addend: 0x0, symName: __ZNKSt3__112basic_stringIcNS_11char_traitsIcEENS_9allocatorIcEEE19__get_short_pointerB7v160006Ev, symObjAddr: 0x22BC, symBinAddr: 0x10000427C, symSize: 0x28 }
  - { offsetInCU: 0xFC3C, offset: 0xFC3C, size: 0x8, addend: 0x0, symName: __ZNSt3__114pointer_traitsIPKcE10pointer_toB7v160006ERS1_, symObjAddr: 0x22E4, symBinAddr: 0x1000042A4, symSize: 0x14 }
  - { offsetInCU: 0xFC5F, offset: 0xFC5F, size: 0x8, addend: 0x0, symName: __ZNSt3__13setIN7SoftUni8ResourceENS_4lessIS2_EENS_9allocatorIS2_EEEC2B7v160006Ev, symObjAddr: 0x22F8, symBinAddr: 0x1000042B8, symSize: 0x30 }
  - { offsetInCU: 0xFC89, offset: 0xFC89, size: 0x8, addend: 0x0, symName: __ZNSt3__16__treeIN7SoftUni8ResourceENS_4lessIS2_EENS_9allocatorIS2_EEEC1ERKS4_, symObjAddr: 0x2328, symBinAddr: 0x1000042E8, symSize: 0x34 }
  - { offsetInCU: 0xFCC4, offset: 0xFCC4, size: 0x8, addend: 0x0, symName: __ZNSt3__16__treeIN7SoftUni8ResourceENS_4lessIS2_EENS_9allocatorIS2_EEEC2ERKS4_, symObjAddr: 0x235C, symBinAddr: 0x10000431C, symSize: 0x7C }
  - { offsetInCU: 0xFCFF, offset: 0xFCFF, size: 0x8, addend: 0x0, symName: __ZNSt3__117__compressed_pairINS_15__tree_end_nodeIPNS_16__tree_node_baseIPvEEEENS_9allocatorINS_11__tree_nodeIN7SoftUni8ResourceES3_EEEEEC1B7v160006ILb1EvEEv, symObjAddr: 0x23D8, symBinAddr: 0x100004398, symSize: 0x2C }
  - { offsetInCU: 0xFD39, offset: 0xFD39, size: 0x8, addend: 0x0, symName: __ZNSt3__117__compressed_pairImNS_4lessIN7SoftUni8ResourceEEEEC1B7v160006IiRKS4_EEOT_OT0_, symObjAddr: 0x2404, symBinAddr: 0x1000043C4, symSize: 0x3C }
  - { offsetInCU: 0xFD91, offset: 0xFD91, size: 0x8, addend: 0x0, symName: __ZNSt3__16__treeIN7SoftUni8ResourceENS_4lessIS2_EENS_9allocatorIS2_EEE10__end_nodeB7v160006Ev, symObjAddr: 0x2440, symBinAddr: 0x100004400, symSize: 0x2C }
  - { offsetInCU: 0xFDB7, offset: 0xFDB7, size: 0x8, addend: 0x0, symName: __ZNSt3__16__treeIN7SoftUni8ResourceENS_4lessIS2_EENS_9allocatorIS2_EEE12__begin_nodeB7v160006Ev, symObjAddr: 0x246C, symBinAddr: 0x10000442C, symSize: 0x14 }
  - { offsetInCU: 0xFDDD, offset: 0xFDDD, size: 0x8, addend: 0x0, symName: __ZNSt3__117__compressed_pairINS_15__tree_end_nodeIPNS_16__tree_node_baseIPvEEEENS_9allocatorINS_11__tree_nodeIN7SoftUni8ResourceES3_EEEEEC2B7v160006ILb1EvEEv, symObjAddr: 0x2480, symBinAddr: 0x100004440, symSize: 0x34 }
  - { offsetInCU: 0xFE12, offset: 0xFE12, size: 0x8, addend: 0x0, symName: __ZNSt3__122__compressed_pair_elemINS_15__tree_end_nodeIPNS_16__tree_node_baseIPvEEEELi0ELb0EEC2B7v160006ENS_16__value_init_tagE, symObjAddr: 0x24B4, symBinAddr: 0x100004474, symSize: 0x2C }
  - { offsetInCU: 0xFE47, offset: 0xFE47, size: 0x8, addend: 0x0, symName: __ZNSt3__122__compressed_pair_elemINS_9allocatorINS_11__tree_nodeIN7SoftUni8ResourceEPvEEEELi1ELb1EEC2B7v160006ENS_16__value_init_tagE, symObjAddr: 0x24E0, symBinAddr: 0x1000044A0, symSize: 0x2C }
  - { offsetInCU: 0xFE7C, offset: 0xFE7C, size: 0x8, addend: 0x0, symName: __ZNSt3__115__tree_end_nodeIPNS_16__tree_node_baseIPvEEEC1B7v160006Ev, symObjAddr: 0x250C, symBinAddr: 0x1000044CC, symSize: 0x2C }
  - { offsetInCU: 0xFEA6, offset: 0xFEA6, size: 0x8, addend: 0x0, symName: __ZNSt3__115__tree_end_nodeIPNS_16__tree_node_baseIPvEEEC2B7v160006Ev, symObjAddr: 0x2538, symBinAddr: 0x1000044F8, symSize: 0x18 }
  - { offsetInCU: 0xFED0, offset: 0xFED0, size: 0x8, addend: 0x0, symName: __ZNSt3__19allocatorINS_11__tree_nodeIN7SoftUni8ResourceEPvEEEC2B7v160006Ev, symObjAddr: 0x2550, symBinAddr: 0x100004510, symSize: 0x2C }
  - { offsetInCU: 0xFEFA, offset: 0xFEFA, size: 0x8, addend: 0x0, symName: __ZNSt3__116__non_trivial_ifILb1ENS_9allocatorINS_11__tree_nodeIN7SoftUni8ResourceEPvEEEEEC2B7v160006Ev, symObjAddr: 0x257C, symBinAddr: 0x10000453C, symSize: 0x14 }
  - { offsetInCU: 0xFF24, offset: 0xFF24, size: 0x8, addend: 0x0, symName: __ZNSt3__117__compressed_pairImNS_4lessIN7SoftUni8ResourceEEEEC2B7v160006IiRKS4_EEOT_OT0_, symObjAddr: 0x2590, symBinAddr: 0x100004550, symSize: 0x44 }
  - { offsetInCU: 0xFF7C, offset: 0xFF7C, size: 0x8, addend: 0x0, symName: __ZNSt3__122__compressed_pair_elemImLi0ELb0EEC2B7v160006IivEEOT_, symObjAddr: 0x25D4, symBinAddr: 0x100004594, symSize: 0x24 }
  - { offsetInCU: 0xFFBE, offset: 0xFFBE, size: 0x8, addend: 0x0, symName: __ZNSt3__122__compressed_pair_elemINS_4lessIN7SoftUni8ResourceEEELi1ELb1EEC2B7v160006IRKS4_vEEOT_, symObjAddr: 0x25F8, symBinAddr: 0x1000045B8, symSize: 0x18 }
  - { offsetInCU: 0x10000, offset: 0x10000, size: 0x8, addend: 0x0, symName: __ZNSt3__114pointer_traitsIPNS_15__tree_end_nodeIPNS_16__tree_node_baseIPvEEEEE10pointer_toB7v160006ERS6_, symObjAddr: 0x2610, symBinAddr: 0x1000045D0, symSize: 0x14 }
  - { offsetInCU: 0x10023, offset: 0x10023, size: 0x8, addend: 0x0, symName: __ZNSt3__117__compressed_pairINS_15__tree_end_nodeIPNS_16__tree_node_baseIPvEEEENS_9allocatorINS_11__tree_nodeIN7SoftUni8ResourceES3_EEEEE5firstB7v160006Ev, symObjAddr: 0x2624, symBinAddr: 0x1000045E4, symSize: 0x24 }
  - { offsetInCU: 0x10049, offset: 0x10049, size: 0x8, addend: 0x0, symName: __ZNSt3__122__compressed_pair_elemINS_15__tree_end_nodeIPNS_16__tree_node_baseIPvEEEELi0ELb0EE5__getB7v160006Ev, symObjAddr: 0x2648, symBinAddr: 0x100004608, symSize: 0x14 }
  - { offsetInCU: 0x1006F, offset: 0x1006F, size: 0x8, addend: 0x0, symName: __ZNSt3__13setIN7SoftUni8ResourceENS_4lessIS2_EENS_9allocatorIS2_EEED2B7v160006Ev, symObjAddr: 0x265C, symBinAddr: 0x10000461C, symSize: 0x2C }
  - { offsetInCU: 0x10099, offset: 0x10099, size: 0x8, addend: 0x0, symName: __ZNSt3__16__treeIN7SoftUni8ResourceENS_4lessIS2_EENS_9allocatorIS2_EEED1Ev, symObjAddr: 0x2688, symBinAddr: 0x100004648, symSize: 0x2C }
  - { offsetInCU: 0x100C5, offset: 0x100C5, size: 0x8, addend: 0x0, symName: __ZNSt3__16__treeIN7SoftUni8ResourceENS_4lessIS2_EENS_9allocatorIS2_EEED2Ev, symObjAddr: 0x26B4, symBinAddr: 0x100004674, symSize: 0x38 }
  - { offsetInCU: 0x100F1, offset: 0x100F1, size: 0x8, addend: 0x0, symName: __ZNSt3__16__treeIN7SoftUni8ResourceENS_4lessIS2_EENS_9allocatorIS2_EEE7destroyEPNS_11__tree_nodeIS2_PvEE, symObjAddr: 0x26EC, symBinAddr: 0x1000046AC, symSize: 0xAC }
  - { offsetInCU: 0x1013D, offset: 0x1013D, size: 0x8, addend: 0x0, symName: __ZNKSt3__16__treeIN7SoftUni8ResourceENS_4lessIS2_EENS_9allocatorIS2_EEE6__rootB7v160006Ev, symObjAddr: 0x2798, symBinAddr: 0x100004758, symSize: 0x28 }
  - { offsetInCU: 0x10163, offset: 0x10163, size: 0x8, addend: 0x0, symName: __ZNSt3__16__treeIN7SoftUni8ResourceENS_4lessIS2_EENS_9allocatorIS2_EEE12__node_allocB7v160006Ev, symObjAddr: 0x27C0, symBinAddr: 0x100004780, symSize: 0x28 }
  - { offsetInCU: 0x10189, offset: 0x10189, size: 0x8, addend: 0x0, symName: __ZNSt3__116allocator_traitsINS_9allocatorINS_11__tree_nodeIN7SoftUni8ResourceEPvEEEEE7destroyB7v160006IS4_vvEEvRS7_PT_, symObjAddr: 0x27E8, symBinAddr: 0x1000047A8, symSize: 0x28 }
  - { offsetInCU: 0x101C4, offset: 0x101C4, size: 0x8, addend: 0x0, symName: __ZNSt3__122__tree_key_value_typesIN7SoftUni8ResourceEE9__get_ptrB7v160006ERS2_, symObjAddr: 0x2810, symBinAddr: 0x1000047D0, symSize: 0x14 }
  - { offsetInCU: 0x101E8, offset: 0x101E8, size: 0x8, addend: 0x0, symName: __ZNSt3__116allocator_traitsINS_9allocatorINS_11__tree_nodeIN7SoftUni8ResourceEPvEEEEE10deallocateB7v160006ERS7_PS6_m, symObjAddr: 0x2824, symBinAddr: 0x1000047E4, symSize: 0x34 }
  - { offsetInCU: 0x1022A, offset: 0x1022A, size: 0x8, addend: 0x0, symName: __ZNSt3__117__compressed_pairINS_15__tree_end_nodeIPNS_16__tree_node_baseIPvEEEENS_9allocatorINS_11__tree_nodeIN7SoftUni8ResourceES3_EEEEE6secondB7v160006Ev, symObjAddr: 0x2858, symBinAddr: 0x100004818, symSize: 0x24 }
  - { offsetInCU: 0x10250, offset: 0x10250, size: 0x8, addend: 0x0, symName: __ZNSt3__122__compressed_pair_elemINS_9allocatorINS_11__tree_nodeIN7SoftUni8ResourceEPvEEEELi1ELb1EE5__getB7v160006Ev, symObjAddr: 0x287C, symBinAddr: 0x10000483C, symSize: 0x14 }
  - { offsetInCU: 0x10276, offset: 0x10276, size: 0x8, addend: 0x0, symName: __ZNSt3__19allocatorINS_11__tree_nodeIN7SoftUni8ResourceEPvEEE10deallocateB7v160006EPS5_m, symObjAddr: 0x2890, symBinAddr: 0x100004850, symSize: 0x40 }
  - { offsetInCU: 0x102B8, offset: 0x102B8, size: 0x8, addend: 0x0, symName: __ZNKSt3__16__treeIN7SoftUni8ResourceENS_4lessIS2_EENS_9allocatorIS2_EEE10__end_nodeB7v160006Ev, symObjAddr: 0x29F8, symBinAddr: 0x1000049B8, symSize: 0x2C }
  - { offsetInCU: 0x102DE, offset: 0x102DE, size: 0x8, addend: 0x0, symName: __ZNKSt3__117__compressed_pairINS_15__tree_end_nodeIPNS_16__tree_node_baseIPvEEEENS_9allocatorINS_11__tree_nodeIN7SoftUni8ResourceES3_EEEEE5firstB7v160006Ev, symObjAddr: 0x2A24, symBinAddr: 0x1000049E4, symSize: 0x24 }
  - { offsetInCU: 0x10304, offset: 0x10304, size: 0x8, addend: 0x0, symName: __ZNKSt3__122__compressed_pair_elemINS_15__tree_end_nodeIPNS_16__tree_node_baseIPvEEEELi0ELb0EE5__getB7v160006Ev, symObjAddr: 0x2A48, symBinAddr: 0x100004A08, symSize: 0x14 }
  - { offsetInCU: 0x1032A, offset: 0x1032A, size: 0x8, addend: 0x0, symName: __ZNSt3__13mapIN7SoftUni12ResourceTypeEiNS_4lessIS2_EENS_9allocatorINS_4pairIKS2_iEEEEEC2B7v160006Ev, symObjAddr: 0x2A5C, symBinAddr: 0x100004A1C, symSize: 0x40 }
  - { offsetInCU: 0x10354, offset: 0x10354, size: 0x8, addend: 0x0, symName: __ZNSt3__119__map_value_compareIN7SoftUni12ResourceTypeENS_12__value_typeIS2_iEENS_4lessIS2_EELb1EEC1B7v160006ES6_, symObjAddr: 0x2A9C, symBinAddr: 0x100004A5C, symSize: 0x2C }
  - { offsetInCU: 0x1038D, offset: 0x1038D, size: 0x8, addend: 0x0, symName: __ZNSt3__16__treeINS_12__value_typeIN7SoftUni12ResourceTypeEiEENS_19__map_value_compareIS3_S4_NS_4lessIS3_EELb1EEENS_9allocatorIS4_EEEC1ERKS8_, symObjAddr: 0x2AC8, symBinAddr: 0x100004A88, symSize: 0x34 }
  - { offsetInCU: 0x103C8, offset: 0x103C8, size: 0x8, addend: 0x0, symName: __ZNSt3__119__map_value_compareIN7SoftUni12ResourceTypeENS_12__value_typeIS2_iEENS_4lessIS2_EELb1EEC2B7v160006ES6_, symObjAddr: 0x2AFC, symBinAddr: 0x100004ABC, symSize: 0x14 }
  - { offsetInCU: 0x10401, offset: 0x10401, size: 0x8, addend: 0x0, symName: __ZNSt3__16__treeINS_12__value_typeIN7SoftUni12ResourceTypeEiEENS_19__map_value_compareIS3_S4_NS_4lessIS3_EELb1EEENS_9allocatorIS4_EEEC2ERKS8_, symObjAddr: 0x2B10, symBinAddr: 0x100004AD0, symSize: 0x7C }
  - { offsetInCU: 0x1043C, offset: 0x1043C, size: 0x8, addend: 0x0, symName: __ZNSt3__117__compressed_pairINS_15__tree_end_nodeIPNS_16__tree_node_baseIPvEEEENS_9allocatorINS_11__tree_nodeINS_12__value_typeIN7SoftUni12ResourceTypeEiEES3_EEEEEC1B7v160006ILb1EvEEv, symObjAddr: 0x2B8C, symBinAddr: 0x100004B4C, symSize: 0x2C }
  - { offsetInCU: 0x10471, offset: 0x10471, size: 0x8, addend: 0x0, symName: __ZNSt3__117__compressed_pairImNS_19__map_value_compareIN7SoftUni12ResourceTypeENS_12__value_typeIS3_iEENS_4lessIS3_EELb1EEEEC1B7v160006IiRKS8_EEOT_OT0_, symObjAddr: 0x2BB8, symBinAddr: 0x100004B78, symSize: 0x3C }
  - { offsetInCU: 0x104C9, offset: 0x104C9, size: 0x8, addend: 0x0, symName: __ZNSt3__16__treeINS_12__value_typeIN7SoftUni12ResourceTypeEiEENS_19__map_value_compareIS3_S4_NS_4lessIS3_EELb1EEENS_9allocatorIS4_EEE10__end_nodeB7v160006Ev, symObjAddr: 0x2BF4, symBinAddr: 0x100004BB4, symSize: 0x2C }
  - { offsetInCU: 0x104EF, offset: 0x104EF, size: 0x8, addend: 0x0, symName: __ZNSt3__16__treeINS_12__value_typeIN7SoftUni12ResourceTypeEiEENS_19__map_value_compareIS3_S4_NS_4lessIS3_EELb1EEENS_9allocatorIS4_EEE12__begin_nodeB7v160006Ev, symObjAddr: 0x2C20, symBinAddr: 0x100004BE0, symSize: 0x14 }
  - { offsetInCU: 0x10515, offset: 0x10515, size: 0x8, addend: 0x0, symName: __ZNSt3__117__compressed_pairINS_15__tree_end_nodeIPNS_16__tree_node_baseIPvEEEENS_9allocatorINS_11__tree_nodeINS_12__value_typeIN7SoftUni12ResourceTypeEiEES3_EEEEEC2B7v160006ILb1EvEEv, symObjAddr: 0x2C34, symBinAddr: 0x100004BF4, symSize: 0x34 }
  - { offsetInCU: 0x1054A, offset: 0x1054A, size: 0x8, addend: 0x0, symName: __ZNSt3__122__compressed_pair_elemINS_9allocatorINS_11__tree_nodeINS_12__value_typeIN7SoftUni12ResourceTypeEiEEPvEEEELi1ELb1EEC2B7v160006ENS_16__value_init_tagE, symObjAddr: 0x2C68, symBinAddr: 0x100004C28, symSize: 0x2C }
  - { offsetInCU: 0x1057F, offset: 0x1057F, size: 0x8, addend: 0x0, symName: __ZNSt3__19allocatorINS_11__tree_nodeINS_12__value_typeIN7SoftUni12ResourceTypeEiEEPvEEEC2B7v160006Ev, symObjAddr: 0x2C94, symBinAddr: 0x100004C54, symSize: 0x2C }
  - { offsetInCU: 0x105A9, offset: 0x105A9, size: 0x8, addend: 0x0, symName: __ZNSt3__116__non_trivial_ifILb1ENS_9allocatorINS_11__tree_nodeINS_12__value_typeIN7SoftUni12ResourceTypeEiEEPvEEEEEC2B7v160006Ev, symObjAddr: 0x2CC0, symBinAddr: 0x100004C80, symSize: 0x14 }
  - { offsetInCU: 0x105D3, offset: 0x105D3, size: 0x8, addend: 0x0, symName: __ZNSt3__117__compressed_pairImNS_19__map_value_compareIN7SoftUni12ResourceTypeENS_12__value_typeIS3_iEENS_4lessIS3_EELb1EEEEC2B7v160006IiRKS8_EEOT_OT0_, symObjAddr: 0x2CD4, symBinAddr: 0x100004C94, symSize: 0x44 }
  - { offsetInCU: 0x1062B, offset: 0x1062B, size: 0x8, addend: 0x0, symName: __ZNSt3__122__compressed_pair_elemINS_19__map_value_compareIN7SoftUni12ResourceTypeENS_12__value_typeIS3_iEENS_4lessIS3_EELb1EEELi1ELb1EEC2B7v160006IRKS8_vEEOT_, symObjAddr: 0x2D18, symBinAddr: 0x100004CD8, symSize: 0x18 }
  - { offsetInCU: 0x1066D, offset: 0x1066D, size: 0x8, addend: 0x0, symName: __ZNSt3__117__compressed_pairINS_15__tree_end_nodeIPNS_16__tree_node_baseIPvEEEENS_9allocatorINS_11__tree_nodeINS_12__value_typeIN7SoftUni12ResourceTypeEiEES3_EEEEE5firstB7v160006Ev, symObjAddr: 0x2D30, symBinAddr: 0x100004CF0, symSize: 0x24 }
  - { offsetInCU: 0x10693, offset: 0x10693, size: 0x8, addend: 0x0, symName: __ZNSt3__13mapIN7SoftUni12ResourceTypeEiNS_4lessIS2_EENS_9allocatorINS_4pairIKS2_iEEEEED2B7v160006Ev, symObjAddr: 0x2D54, symBinAddr: 0x100004D14, symSize: 0x2C }
  - { offsetInCU: 0x106BD, offset: 0x106BD, size: 0x8, addend: 0x0, symName: __ZNSt3__16__treeINS_12__value_typeIN7SoftUni12ResourceTypeEiEENS_19__map_value_compareIS3_S4_NS_4lessIS3_EELb1EEENS_9allocatorIS4_EEED1Ev, symObjAddr: 0x2D80, symBinAddr: 0x100004D40, symSize: 0x2C }
  - { offsetInCU: 0x106E9, offset: 0x106E9, size: 0x8, addend: 0x0, symName: __ZNSt3__16__treeINS_12__value_typeIN7SoftUni12ResourceTypeEiEENS_19__map_value_compareIS3_S4_NS_4lessIS3_EELb1EEENS_9allocatorIS4_EEED2Ev, symObjAddr: 0x2DAC, symBinAddr: 0x100004D6C, symSize: 0x38 }
  - { offsetInCU: 0x10715, offset: 0x10715, size: 0x8, addend: 0x0, symName: __ZNSt3__16__treeINS_12__value_typeIN7SoftUni12ResourceTypeEiEENS_19__map_value_compareIS3_S4_NS_4lessIS3_EELb1EEENS_9allocatorIS4_EEE7destroyEPNS_11__tree_nodeIS4_PvEE, symObjAddr: 0x2DE4, symBinAddr: 0x100004DA4, symSize: 0xAC }
  - { offsetInCU: 0x10761, offset: 0x10761, size: 0x8, addend: 0x0, symName: __ZNKSt3__16__treeINS_12__value_typeIN7SoftUni12ResourceTypeEiEENS_19__map_value_compareIS3_S4_NS_4lessIS3_EELb1EEENS_9allocatorIS4_EEE6__rootB7v160006Ev, symObjAddr: 0x2E90, symBinAddr: 0x100004E50, symSize: 0x28 }
  - { offsetInCU: 0x10787, offset: 0x10787, size: 0x8, addend: 0x0, symName: __ZNSt3__16__treeINS_12__value_typeIN7SoftUni12ResourceTypeEiEENS_19__map_value_compareIS3_S4_NS_4lessIS3_EELb1EEENS_9allocatorIS4_EEE12__node_allocB7v160006Ev, symObjAddr: 0x2EB8, symBinAddr: 0x100004E78, symSize: 0x28 }
  - { offsetInCU: 0x107AD, offset: 0x107AD, size: 0x8, addend: 0x0, symName: __ZNSt3__116allocator_traitsINS_9allocatorINS_11__tree_nodeINS_12__value_typeIN7SoftUni12ResourceTypeEiEEPvEEEEE7destroyB7v160006INS_4pairIKS5_iEEvvEEvRS9_PT_, symObjAddr: 0x2EE0, symBinAddr: 0x100004EA0, symSize: 0x14 }
  - { offsetInCU: 0x107E8, offset: 0x107E8, size: 0x8, addend: 0x0, symName: __ZNSt3__122__tree_key_value_typesINS_12__value_typeIN7SoftUni12ResourceTypeEiEEE9__get_ptrB7v160006ERS4_, symObjAddr: 0x2EF4, symBinAddr: 0x100004EB4, symSize: 0x24 }
  - { offsetInCU: 0x1080C, offset: 0x1080C, size: 0x8, addend: 0x0, symName: __ZNSt3__116allocator_traitsINS_9allocatorINS_11__tree_nodeINS_12__value_typeIN7SoftUni12ResourceTypeEiEEPvEEEEE10deallocateB7v160006ERS9_PS8_m, symObjAddr: 0x2F18, symBinAddr: 0x100004ED8, symSize: 0x34 }
  - { offsetInCU: 0x1084E, offset: 0x1084E, size: 0x8, addend: 0x0, symName: __ZNSt3__117__compressed_pairINS_15__tree_end_nodeIPNS_16__tree_node_baseIPvEEEENS_9allocatorINS_11__tree_nodeINS_12__value_typeIN7SoftUni12ResourceTypeEiEES3_EEEEE6secondB7v160006Ev, symObjAddr: 0x2F4C, symBinAddr: 0x100004F0C, symSize: 0x24 }
  - { offsetInCU: 0x10874, offset: 0x10874, size: 0x8, addend: 0x0, symName: __ZNSt3__122__compressed_pair_elemINS_9allocatorINS_11__tree_nodeINS_12__value_typeIN7SoftUni12ResourceTypeEiEEPvEEEELi1ELb1EE5__getB7v160006Ev, symObjAddr: 0x2F70, symBinAddr: 0x100004F30, symSize: 0x14 }
  - { offsetInCU: 0x1089A, offset: 0x1089A, size: 0x8, addend: 0x0, symName: __ZNSt3__112__value_typeIN7SoftUni12ResourceTypeEiE11__get_valueB7v160006Ev, symObjAddr: 0x2F84, symBinAddr: 0x100004F44, symSize: 0x24 }
  - { offsetInCU: 0x108C0, offset: 0x108C0, size: 0x8, addend: 0x0, symName: __ZNSt3__19allocatorINS_11__tree_nodeINS_12__value_typeIN7SoftUni12ResourceTypeEiEEPvEEE10deallocateB7v160006EPS7_m, symObjAddr: 0x2FE0, symBinAddr: 0x100004FA0, symSize: 0x44 }
  - { offsetInCU: 0x10902, offset: 0x10902, size: 0x8, addend: 0x0, symName: __ZNKSt3__16__treeINS_12__value_typeIN7SoftUni12ResourceTypeEiEENS_19__map_value_compareIS3_S4_NS_4lessIS3_EELb1EEENS_9allocatorIS4_EEE10__end_nodeB7v160006Ev, symObjAddr: 0x3024, symBinAddr: 0x100004FE4, symSize: 0x2C }
  - { offsetInCU: 0x10928, offset: 0x10928, size: 0x8, addend: 0x0, symName: __ZNKSt3__117__compressed_pairINS_15__tree_end_nodeIPNS_16__tree_node_baseIPvEEEENS_9allocatorINS_11__tree_nodeINS_12__value_typeIN7SoftUni12ResourceTypeEiEES3_EEEEE5firstB7v160006Ev, symObjAddr: 0x3050, symBinAddr: 0x100005010, symSize: 0x24 }
  - { offsetInCU: 0x1094E, offset: 0x1094E, size: 0x8, addend: 0x0, symName: __ZNSt3__16__treeIN7SoftUni8ResourceENS_4lessIS2_EENS_9allocatorIS2_EEE15__insert_uniqueB7v160006ERKS2_, symObjAddr: 0x3074, symBinAddr: 0x100005034, symSize: 0x50 }
  - { offsetInCU: 0x10983, offset: 0x10983, size: 0x8, addend: 0x0, symName: __ZNSt3__14pairINS_21__tree_const_iteratorIN7SoftUni8ResourceEPNS_11__tree_nodeIS3_PvEElEEbEC1B7v160006INS_15__tree_iteratorIS3_S7_lEEbLS5_0EEEONS0_IT_T0_EE, symObjAddr: 0x30C4, symBinAddr: 0x100005084, symSize: 0x34 }
  - { offsetInCU: 0x109D4, offset: 0x109D4, size: 0x8, addend: 0x0, symName: __ZNSt3__16__treeIN7SoftUni8ResourceENS_4lessIS2_EENS_9allocatorIS2_EEE25__emplace_unique_key_argsIS2_JRKS2_EEENS_4pairINS_15__tree_iteratorIS2_PNS_11__tree_nodeIS2_PvEElEEbEERKT_DpOT0_, symObjAddr: 0x30F8, symBinAddr: 0x1000050B8, symSize: 0xF0 }
  - { offsetInCU: 0x10A80, offset: 0x10A80, size: 0x8, addend: 0x0, symName: __ZNSt3__122__tree_key_value_typesIN7SoftUni8ResourceEE9__get_keyB7v160006ERKS2_, symObjAddr: 0x31E8, symBinAddr: 0x1000051A8, symSize: 0x14 }
  - { offsetInCU: 0x10AA4, offset: 0x10AA4, size: 0x8, addend: 0x0, symName: __ZNSt3__16__treeIN7SoftUni8ResourceENS_4lessIS2_EENS_9allocatorIS2_EEE12__find_equalIS2_EERPNS_16__tree_node_baseIPvEERPNS_15__tree_end_nodeISC_EERKT_, symObjAddr: 0x31FC, symBinAddr: 0x1000051BC, symSize: 0x184 }
  - { offsetInCU: 0x10B11, offset: 0x10B11, size: 0x8, addend: 0x0, symName: __ZNSt3__16__treeIN7SoftUni8ResourceENS_4lessIS2_EENS_9allocatorIS2_EEE16__construct_nodeIJRKS2_EEENS_10unique_ptrINS_11__tree_nodeIS2_PvEENS_22__tree_node_destructorINS5_ISE_EEEEEEDpOT_, symObjAddr: 0x3380, symBinAddr: 0x100005340, symSize: 0x108 }
  - { offsetInCU: 0x10B72, offset: 0x10B72, size: 0x8, addend: 0x0, symName: __ZNSt3__16__treeIN7SoftUni8ResourceENS_4lessIS2_EENS_9allocatorIS2_EEE16__insert_node_atEPNS_15__tree_end_nodeIPNS_16__tree_node_baseIPvEEEERSC_SC_, symObjAddr: 0x3488, symBinAddr: 0x100005448, symSize: 0xCC }
  - { offsetInCU: 0x10BC7, offset: 0x10BC7, size: 0x8, addend: 0x0, symName: __ZNKSt3__110unique_ptrINS_11__tree_nodeIN7SoftUni8ResourceEPvEENS_22__tree_node_destructorINS_9allocatorIS5_EEEEE3getB7v160006Ev, symObjAddr: 0x3554, symBinAddr: 0x100005514, symSize: 0x28 }
  - { offsetInCU: 0x10BED, offset: 0x10BED, size: 0x8, addend: 0x0, symName: __ZNSt3__110unique_ptrINS_11__tree_nodeIN7SoftUni8ResourceEPvEENS_22__tree_node_destructorINS_9allocatorIS5_EEEEE7releaseB7v160006Ev, symObjAddr: 0x357C, symBinAddr: 0x10000553C, symSize: 0x44 }
  - { offsetInCU: 0x10C22, offset: 0x10C22, size: 0x8, addend: 0x0, symName: __ZNSt3__110unique_ptrINS_11__tree_nodeIN7SoftUni8ResourceEPvEENS_22__tree_node_destructorINS_9allocatorIS5_EEEEED1B7v160006Ev, symObjAddr: 0x35C0, symBinAddr: 0x100005580, symSize: 0x2C }
  - { offsetInCU: 0x10C4C, offset: 0x10C4C, size: 0x8, addend: 0x0, symName: __ZNSt3__115__tree_iteratorIN7SoftUni8ResourceEPNS_11__tree_nodeIS2_PvEElEC1B7v160006ES6_, symObjAddr: 0x35EC, symBinAddr: 0x1000055AC, symSize: 0x34 }
  - { offsetInCU: 0x10C8A, offset: 0x10C8A, size: 0x8, addend: 0x0, symName: __ZNSt3__14pairINS_15__tree_iteratorIN7SoftUni8ResourceEPNS_11__tree_nodeIS3_PvEElEEbEC1B7v160006IS8_RbLS5_0EEEOT_OT0_, symObjAddr: 0x3620, symBinAddr: 0x1000055E0, symSize: 0x3C }
  - { offsetInCU: 0x10CE8, offset: 0x10CE8, size: 0x8, addend: 0x0, symName: __ZNKSt3__16__treeIN7SoftUni8ResourceENS_4lessIS2_EENS_9allocatorIS2_EEE10__root_ptrEv, symObjAddr: 0x365C, symBinAddr: 0x10000561C, symSize: 0x24 }
  - { offsetInCU: 0x10D0E, offset: 0x10D0E, size: 0x8, addend: 0x0, symName: __ZNSt3__16__treeIN7SoftUni8ResourceENS_4lessIS2_EENS_9allocatorIS2_EEE10value_compB7v160006Ev, symObjAddr: 0x3680, symBinAddr: 0x100005640, symSize: 0x28 }
  - { offsetInCU: 0x10D34, offset: 0x10D34, size: 0x8, addend: 0x0, symName: __ZNKSt3__14lessIN7SoftUni8ResourceEEclB7v160006ERKS2_S5_, symObjAddr: 0x36A8, symBinAddr: 0x100005668, symSize: 0x34 }
  - { offsetInCU: 0x10D78, offset: 0x10D78, size: 0x8, addend: 0x0, symName: __ZNSt3__117__compressed_pairImNS_4lessIN7SoftUni8ResourceEEEE6secondB7v160006Ev, symObjAddr: 0x36DC, symBinAddr: 0x10000569C, symSize: 0x24 }
  - { offsetInCU: 0x10D9E, offset: 0x10D9E, size: 0x8, addend: 0x0, symName: __ZNSt3__122__compressed_pair_elemINS_4lessIN7SoftUni8ResourceEEELi1ELb1EE5__getB7v160006Ev, symObjAddr: 0x3700, symBinAddr: 0x1000056C0, symSize: 0x14 }
  - { offsetInCU: 0x10DC4, offset: 0x10DC4, size: 0x8, addend: 0x0, symName: __ZNK7SoftUni8ResourceltERKS0_, symObjAddr: 0x3714, symBinAddr: 0x1000056D4, symSize: 0x30 }
  - { offsetInCU: 0x10DF8, offset: 0x10DF8, size: 0x8, addend: 0x0, symName: __ZNSt3__116allocator_traitsINS_9allocatorINS_11__tree_nodeIN7SoftUni8ResourceEPvEEEEE8allocateB7v160006ERS7_m, symObjAddr: 0x3744, symBinAddr: 0x100005704, symSize: 0x2C }
  - { offsetInCU: 0x10E2B, offset: 0x10E2B, size: 0x8, addend: 0x0, symName: __ZNSt3__122__tree_node_destructorINS_9allocatorINS_11__tree_nodeIN7SoftUni8ResourceEPvEEEEEC1B7v160006ERS7_b, symObjAddr: 0x3770, symBinAddr: 0x100005730, symSize: 0x48 }
  - { offsetInCU: 0x10E78, offset: 0x10E78, size: 0x8, addend: 0x0, symName: __ZNSt3__110unique_ptrINS_11__tree_nodeIN7SoftUni8ResourceEPvEENS_22__tree_node_destructorINS_9allocatorIS5_EEEEEC1B7v160006ILb1EvEEPS5_NS_16__dependent_typeINS_27__unique_ptr_deleter_sfinaeIS9_EEXT_EE20__good_rval_ref_typeE, symObjAddr: 0x37B8, symBinAddr: 0x100005778, symSize: 0x3C }
  - { offsetInCU: 0x10EC9, offset: 0x10EC9, size: 0x8, addend: 0x0, symName: __ZNSt3__116allocator_traitsINS_9allocatorINS_11__tree_nodeIN7SoftUni8ResourceEPvEEEEE9constructB7v160006IS4_JRKS4_EvEEvRS7_PT_DpOT0_, symObjAddr: 0x37F4, symBinAddr: 0x1000057B4, symSize: 0x34 }
  - { offsetInCU: 0x10F20, offset: 0x10F20, size: 0x8, addend: 0x0, symName: __ZNKSt3__110unique_ptrINS_11__tree_nodeIN7SoftUni8ResourceEPvEENS_22__tree_node_destructorINS_9allocatorIS5_EEEEEptB7v160006Ev, symObjAddr: 0x3828, symBinAddr: 0x1000057E8, symSize: 0x28 }
  - { offsetInCU: 0x10F46, offset: 0x10F46, size: 0x8, addend: 0x0, symName: __ZNSt3__110unique_ptrINS_11__tree_nodeIN7SoftUni8ResourceEPvEENS_22__tree_node_destructorINS_9allocatorIS5_EEEEE11get_deleterB7v160006Ev, symObjAddr: 0x3850, symBinAddr: 0x100005810, symSize: 0x24 }
  - { offsetInCU: 0x10F6C, offset: 0x10F6C, size: 0x8, addend: 0x0, symName: __ZNSt3__19allocatorINS_11__tree_nodeIN7SoftUni8ResourceEPvEEE8allocateB7v160006Em, symObjAddr: 0x3874, symBinAddr: 0x100005834, symSize: 0x58 }
  - { offsetInCU: 0x10FAA, offset: 0x10FAA, size: 0x8, addend: 0x0, symName: __ZNSt3__116allocator_traitsINS_9allocatorINS_11__tree_nodeIN7SoftUni8ResourceEPvEEEEE8max_sizeB7v160006IS7_vEEmRKS7_, symObjAddr: 0x38CC, symBinAddr: 0x10000588C, symSize: 0x24 }
  - { offsetInCU: 0x10FD8, offset: 0x10FD8, size: 0x8, addend: 0x0, symName: __ZNKSt3__19allocatorINS_11__tree_nodeIN7SoftUni8ResourceEPvEEE8max_sizeB7v160006Ev, symObjAddr: 0x3984, symBinAddr: 0x100005944, symSize: 0x14 }
  - { offsetInCU: 0x10FFE, offset: 0x10FFE, size: 0x8, addend: 0x0, symName: __ZNSt3__122__tree_node_destructorINS_9allocatorINS_11__tree_nodeIN7SoftUni8ResourceEPvEEEEEC2B7v160006ERS7_b, symObjAddr: 0x39E8, symBinAddr: 0x1000059A8, symSize: 0x38 }
  - { offsetInCU: 0x11046, offset: 0x11046, size: 0x8, addend: 0x0, symName: __ZNSt3__110unique_ptrINS_11__tree_nodeIN7SoftUni8ResourceEPvEENS_22__tree_node_destructorINS_9allocatorIS5_EEEEEC2B7v160006ILb1EvEEPS5_NS_16__dependent_typeINS_27__unique_ptr_deleter_sfinaeIS9_EEXT_EE20__good_rval_ref_typeE, symObjAddr: 0x3A20, symBinAddr: 0x1000059E0, symSize: 0x48 }
  - { offsetInCU: 0x11097, offset: 0x11097, size: 0x8, addend: 0x0, symName: __ZNSt3__117__compressed_pairIPNS_11__tree_nodeIN7SoftUni8ResourceEPvEENS_22__tree_node_destructorINS_9allocatorIS5_EEEEEC1B7v160006IRS6_SA_EEOT_OT0_, symObjAddr: 0x3A68, symBinAddr: 0x100005A28, symSize: 0x3C }
  - { offsetInCU: 0x110EF, offset: 0x110EF, size: 0x8, addend: 0x0, symName: __ZNSt3__117__compressed_pairIPNS_11__tree_nodeIN7SoftUni8ResourceEPvEENS_22__tree_node_destructorINS_9allocatorIS5_EEEEEC2B7v160006IRS6_SA_EEOT_OT0_, symObjAddr: 0x3AA4, symBinAddr: 0x100005A64, symSize: 0x48 }
  - { offsetInCU: 0x11147, offset: 0x11147, size: 0x8, addend: 0x0, symName: __ZNSt3__122__compressed_pair_elemIPNS_11__tree_nodeIN7SoftUni8ResourceEPvEELi0ELb0EEC2B7v160006IRS6_vEEOT_, symObjAddr: 0x3AEC, symBinAddr: 0x100005AAC, symSize: 0x24 }
  - { offsetInCU: 0x11189, offset: 0x11189, size: 0x8, addend: 0x0, symName: __ZNSt3__122__compressed_pair_elemINS_22__tree_node_destructorINS_9allocatorINS_11__tree_nodeIN7SoftUni8ResourceEPvEEEEEELi1ELb0EEC2B7v160006IS9_vEEOT_, symObjAddr: 0x3B10, symBinAddr: 0x100005AD0, symSize: 0x24 }
  - { offsetInCU: 0x111CB, offset: 0x111CB, size: 0x8, addend: 0x0, symName: __ZNSt3__19allocatorINS_11__tree_nodeIN7SoftUni8ResourceEPvEEE9constructB7v160006IS3_JRKS3_EEEvPT_DpOT0_, symObjAddr: 0x3B34, symBinAddr: 0x100005AF4, symSize: 0x30 }
  - { offsetInCU: 0x11221, offset: 0x11221, size: 0x8, addend: 0x0, symName: __ZNKSt3__117__compressed_pairIPNS_11__tree_nodeIN7SoftUni8ResourceEPvEENS_22__tree_node_destructorINS_9allocatorIS5_EEEEE5firstB7v160006Ev, symObjAddr: 0x3B64, symBinAddr: 0x100005B24, symSize: 0x24 }
  - { offsetInCU: 0x11247, offset: 0x11247, size: 0x8, addend: 0x0, symName: __ZNKSt3__122__compressed_pair_elemIPNS_11__tree_nodeIN7SoftUni8ResourceEPvEELi0ELb0EE5__getB7v160006Ev, symObjAddr: 0x3B88, symBinAddr: 0x100005B48, symSize: 0x14 }
  - { offsetInCU: 0x1126D, offset: 0x1126D, size: 0x8, addend: 0x0, symName: __ZNSt3__117__compressed_pairIPNS_11__tree_nodeIN7SoftUni8ResourceEPvEENS_22__tree_node_destructorINS_9allocatorIS5_EEEEE6secondB7v160006Ev, symObjAddr: 0x3B9C, symBinAddr: 0x100005B5C, symSize: 0x28 }
  - { offsetInCU: 0x11293, offset: 0x11293, size: 0x8, addend: 0x0, symName: __ZNSt3__122__compressed_pair_elemINS_22__tree_node_destructorINS_9allocatorINS_11__tree_nodeIN7SoftUni8ResourceEPvEEEEEELi1ELb0EE5__getB7v160006Ev, symObjAddr: 0x3BC4, symBinAddr: 0x100005B84, symSize: 0x14 }
  - { offsetInCU: 0x112B9, offset: 0x112B9, size: 0x8, addend: 0x0, symName: __ZNSt3__16__treeIN7SoftUni8ResourceENS_4lessIS2_EENS_9allocatorIS2_EEE4sizeB7v160006Ev, symObjAddr: 0x3F04, symBinAddr: 0x100005EC4, symSize: 0x28 }
  - { offsetInCU: 0x112DF, offset: 0x112DF, size: 0x8, addend: 0x0, symName: __ZNKSt3__116__tree_node_baseIPvE15__parent_unsafeB7v160006Ev, symObjAddr: 0x3F2C, symBinAddr: 0x100005EEC, symSize: 0x18 }
  - { offsetInCU: 0x11305, offset: 0x11305, size: 0x8, addend: 0x0, symName: __ZNSt3__116__tree_node_baseIPvE12__set_parentB7v160006EPS2_, symObjAddr: 0x4114, symBinAddr: 0x1000060D4, symSize: 0x20 }
  - { offsetInCU: 0x1133A, offset: 0x1133A, size: 0x8, addend: 0x0, symName: __ZNSt3__117__compressed_pairImNS_4lessIN7SoftUni8ResourceEEEE5firstB7v160006Ev, symObjAddr: 0x4134, symBinAddr: 0x1000060F4, symSize: 0x24 }
  - { offsetInCU: 0x11360, offset: 0x11360, size: 0x8, addend: 0x0, symName: __ZNSt3__122__compressed_pair_elemImLi0ELb0EE5__getB7v160006Ev, symObjAddr: 0x4158, symBinAddr: 0x100006118, symSize: 0x14 }
  - { offsetInCU: 0x11386, offset: 0x11386, size: 0x8, addend: 0x0, symName: __ZNSt3__117__compressed_pairIPNS_11__tree_nodeIN7SoftUni8ResourceEPvEENS_22__tree_node_destructorINS_9allocatorIS5_EEEEE5firstB7v160006Ev, symObjAddr: 0x416C, symBinAddr: 0x10000612C, symSize: 0x24 }
  - { offsetInCU: 0x113AC, offset: 0x113AC, size: 0x8, addend: 0x0, symName: __ZNSt3__122__compressed_pair_elemIPNS_11__tree_nodeIN7SoftUni8ResourceEPvEELi0ELb0EE5__getB7v160006Ev, symObjAddr: 0x4190, symBinAddr: 0x100006150, symSize: 0x14 }
  - { offsetInCU: 0x113D2, offset: 0x113D2, size: 0x8, addend: 0x0, symName: __ZNSt3__110unique_ptrINS_11__tree_nodeIN7SoftUni8ResourceEPvEENS_22__tree_node_destructorINS_9allocatorIS5_EEEEED2B7v160006Ev, symObjAddr: 0x41A4, symBinAddr: 0x100006164, symSize: 0x30 }
  - { offsetInCU: 0x113FC, offset: 0x113FC, size: 0x8, addend: 0x0, symName: __ZNSt3__110unique_ptrINS_11__tree_nodeIN7SoftUni8ResourceEPvEENS_22__tree_node_destructorINS_9allocatorIS5_EEEEE5resetB7v160006EPS5_, symObjAddr: 0x41D4, symBinAddr: 0x100006194, symSize: 0x78 }
  - { offsetInCU: 0x11440, offset: 0x11440, size: 0x8, addend: 0x0, symName: __ZNSt3__122__tree_node_destructorINS_9allocatorINS_11__tree_nodeIN7SoftUni8ResourceEPvEEEEEclB7v160006EPS6_, symObjAddr: 0x424C, symBinAddr: 0x10000620C, symSize: 0x88 }
  - { offsetInCU: 0x11475, offset: 0x11475, size: 0x8, addend: 0x0, symName: __ZNSt3__115__tree_iteratorIN7SoftUni8ResourceEPNS_11__tree_nodeIS2_PvEElEC2B7v160006ES6_, symObjAddr: 0x42D4, symBinAddr: 0x100006294, symSize: 0x20 }
  - { offsetInCU: 0x114AE, offset: 0x114AE, size: 0x8, addend: 0x0, symName: __ZNSt3__14pairINS_15__tree_iteratorIN7SoftUni8ResourceEPNS_11__tree_nodeIS3_PvEElEEbEC2B7v160006IS8_RbLS5_0EEEOT_OT0_, symObjAddr: 0x42F4, symBinAddr: 0x1000062B4, symSize: 0x38 }
  - { offsetInCU: 0x1150C, offset: 0x1150C, size: 0x8, addend: 0x0, symName: __ZNSt3__14pairINS_21__tree_const_iteratorIN7SoftUni8ResourceEPNS_11__tree_nodeIS3_PvEElEEbEC2B7v160006INS_15__tree_iteratorIS3_S7_lEEbLS5_0EEEONS0_IT_T0_EE, symObjAddr: 0x432C, symBinAddr: 0x1000062EC, symSize: 0x50 }
  - { offsetInCU: 0x1155D, offset: 0x1155D, size: 0x8, addend: 0x0, symName: __ZNSt3__121__tree_const_iteratorIN7SoftUni8ResourceEPNS_11__tree_nodeIS2_PvEElEC1B7v160006ENS_15__tree_iteratorIS2_S6_lEE, symObjAddr: 0x437C, symBinAddr: 0x10000633C, symSize: 0x34 }
  - { offsetInCU: 0x11596, offset: 0x11596, size: 0x8, addend: 0x0, symName: __ZNSt3__121__tree_const_iteratorIN7SoftUni8ResourceEPNS_11__tree_nodeIS2_PvEElEC2B7v160006ENS_15__tree_iteratorIS2_S6_lEE, symObjAddr: 0x43B0, symBinAddr: 0x100006370, symSize: 0x20 }
  - { offsetInCU: 0x115CF, offset: 0x115CF, size: 0x8, addend: 0x0, symName: __ZNSt3__16__treeIN7SoftUni8ResourceENS_4lessIS2_EENS_9allocatorIS2_EEE5beginB7v160006Ev, symObjAddr: 0x43D0, symBinAddr: 0x100006390, symSize: 0x34 }
  - { offsetInCU: 0x115F5, offset: 0x115F5, size: 0x8, addend: 0x0, symName: __ZNSt3__115__tree_iteratorIN7SoftUni8ResourceEPNS_11__tree_nodeIS2_PvEElEC1B7v160006EPNS_15__tree_end_nodeIPNS_16__tree_node_baseIS4_EEEE, symObjAddr: 0x4404, symBinAddr: 0x1000063C4, symSize: 0x34 }
  - { offsetInCU: 0x1162E, offset: 0x1162E, size: 0x8, addend: 0x0, symName: __ZNSt3__115__tree_iteratorIN7SoftUni8ResourceEPNS_11__tree_nodeIS2_PvEElEC2B7v160006EPNS_15__tree_end_nodeIPNS_16__tree_node_baseIS4_EEEE, symObjAddr: 0x4438, symBinAddr: 0x1000063F8, symSize: 0x20 }
  - { offsetInCU: 0x11667, offset: 0x11667, size: 0x8, addend: 0x0, symName: __ZNSt3__16__treeIN7SoftUni8ResourceENS_4lessIS2_EENS_9allocatorIS2_EEE3endB7v160006Ev, symObjAddr: 0x4458, symBinAddr: 0x100006418, symSize: 0x34 }
  - { offsetInCU: 0x1168D, offset: 0x1168D, size: 0x8, addend: 0x0, symName: __ZNKSt3__121__tree_const_iteratorIN7SoftUni8ResourceEPNS_11__tree_nodeIS2_PvEElE8__get_npB7v160006Ev, symObjAddr: 0x457C, symBinAddr: 0x10000653C, symSize: 0x18 }
  - { offsetInCU: 0x116C7, offset: 0x116C7, size: 0x8, addend: 0x0, symName: __ZNSt3__16__treeINS_12__value_typeIN7SoftUni12ResourceTypeEiEENS_19__map_value_compareIS3_S4_NS_4lessIS3_EELb1EEENS_9allocatorIS4_EEE25__emplace_unique_key_argsIS3_JRKNS_21piecewise_construct_tENS_5tupleIJOS3_EEENSG_IJEEEEEENS_4pairINS_15__tree_iteratorIS4_PNS_11__tree_nodeIS4_PvEElEEbEERKT_DpOT0_, symObjAddr: 0x4594, symBinAddr: 0x100006554, symSize: 0x100 }
  - { offsetInCU: 0x1179D, offset: 0x1179D, size: 0x8, addend: 0x0, symName: __ZNKSt3__115__tree_iteratorINS_12__value_typeIN7SoftUni12ResourceTypeEiEEPNS_11__tree_nodeIS4_PvEElEptB7v160006Ev, symObjAddr: 0x46C4, symBinAddr: 0x100006684, symSize: 0x2C }
  - { offsetInCU: 0x117C3, offset: 0x117C3, size: 0x8, addend: 0x0, symName: __ZNSt3__16__treeINS_12__value_typeIN7SoftUni12ResourceTypeEiEENS_19__map_value_compareIS3_S4_NS_4lessIS3_EELb1EEENS_9allocatorIS4_EEE12__find_equalIS3_EERPNS_16__tree_node_baseIPvEERPNS_15__tree_end_nodeISG_EERKT_, symObjAddr: 0x46F0, symBinAddr: 0x1000066B0, symSize: 0x184 }
  - { offsetInCU: 0x11830, offset: 0x11830, size: 0x8, addend: 0x0, symName: __ZNSt3__16__treeINS_12__value_typeIN7SoftUni12ResourceTypeEiEENS_19__map_value_compareIS3_S4_NS_4lessIS3_EELb1EEENS_9allocatorIS4_EEE16__construct_nodeIJRKNS_21piecewise_construct_tENS_5tupleIJOS3_EEENSG_IJEEEEEENS_10unique_ptrINS_11__tree_nodeIS4_PvEENS_22__tree_node_destructorINS9_ISN_EEEEEEDpOT_, symObjAddr: 0x4874, symBinAddr: 0x100006834, symSize: 0x120 }
  - { offsetInCU: 0x118B9, offset: 0x118B9, size: 0x8, addend: 0x0, symName: __ZNSt3__16__treeINS_12__value_typeIN7SoftUni12ResourceTypeEiEENS_19__map_value_compareIS3_S4_NS_4lessIS3_EELb1EEENS_9allocatorIS4_EEE16__insert_node_atEPNS_15__tree_end_nodeIPNS_16__tree_node_baseIPvEEEERSG_SG_, symObjAddr: 0x4994, symBinAddr: 0x100006954, symSize: 0xCC }
  - { offsetInCU: 0x1190E, offset: 0x1190E, size: 0x8, addend: 0x0, symName: __ZNKSt3__110unique_ptrINS_11__tree_nodeINS_12__value_typeIN7SoftUni12ResourceTypeEiEEPvEENS_22__tree_node_destructorINS_9allocatorIS7_EEEEE3getB7v160006Ev, symObjAddr: 0x4A60, symBinAddr: 0x100006A20, symSize: 0x28 }
  - { offsetInCU: 0x11934, offset: 0x11934, size: 0x8, addend: 0x0, symName: __ZNSt3__110unique_ptrINS_11__tree_nodeINS_12__value_typeIN7SoftUni12ResourceTypeEiEEPvEENS_22__tree_node_destructorINS_9allocatorIS7_EEEEE7releaseB7v160006Ev, symObjAddr: 0x4A88, symBinAddr: 0x100006A48, symSize: 0x44 }
  - { offsetInCU: 0x11969, offset: 0x11969, size: 0x8, addend: 0x0, symName: __ZNSt3__110unique_ptrINS_11__tree_nodeINS_12__value_typeIN7SoftUni12ResourceTypeEiEEPvEENS_22__tree_node_destructorINS_9allocatorIS7_EEEEED1B7v160006Ev, symObjAddr: 0x4ACC, symBinAddr: 0x100006A8C, symSize: 0x2C }
  - { offsetInCU: 0x11993, offset: 0x11993, size: 0x8, addend: 0x0, symName: __ZNSt3__115__tree_iteratorINS_12__value_typeIN7SoftUni12ResourceTypeEiEEPNS_11__tree_nodeIS4_PvEElEC1B7v160006ES8_, symObjAddr: 0x4AF8, symBinAddr: 0x100006AB8, symSize: 0x34 }
  - { offsetInCU: 0x119D1, offset: 0x119D1, size: 0x8, addend: 0x0, symName: __ZNSt3__14pairINS_15__tree_iteratorINS_12__value_typeIN7SoftUni12ResourceTypeEiEEPNS_11__tree_nodeIS5_PvEElEEbEC1B7v160006ISA_RbLS7_0EEEOT_OT0_, symObjAddr: 0x4B2C, symBinAddr: 0x100006AEC, symSize: 0x3C }
  - { offsetInCU: 0x11A2F, offset: 0x11A2F, size: 0x8, addend: 0x0, symName: __ZNKSt3__16__treeINS_12__value_typeIN7SoftUni12ResourceTypeEiEENS_19__map_value_compareIS3_S4_NS_4lessIS3_EELb1EEENS_9allocatorIS4_EEE10__root_ptrEv, symObjAddr: 0x4B68, symBinAddr: 0x100006B28, symSize: 0x24 }
  - { offsetInCU: 0x11A55, offset: 0x11A55, size: 0x8, addend: 0x0, symName: __ZNSt3__16__treeINS_12__value_typeIN7SoftUni12ResourceTypeEiEENS_19__map_value_compareIS3_S4_NS_4lessIS3_EELb1EEENS_9allocatorIS4_EEE10value_compB7v160006Ev, symObjAddr: 0x4B8C, symBinAddr: 0x100006B4C, symSize: 0x28 }
  - { offsetInCU: 0x11A7B, offset: 0x11A7B, size: 0x8, addend: 0x0, symName: __ZNKSt3__119__map_value_compareIN7SoftUni12ResourceTypeENS_12__value_typeIS2_iEENS_4lessIS2_EELb1EEclB7v160006ERKS2_RKS4_, symObjAddr: 0x4BB4, symBinAddr: 0x100006B74, symSize: 0x50 }
  - { offsetInCU: 0x11ABF, offset: 0x11ABF, size: 0x8, addend: 0x0, symName: __ZNKSt3__119__map_value_compareIN7SoftUni12ResourceTypeENS_12__value_typeIS2_iEENS_4lessIS2_EELb1EEclB7v160006ERKS4_RKS2_, symObjAddr: 0x4C04, symBinAddr: 0x100006BC4, symSize: 0x48 }
  - { offsetInCU: 0x11B03, offset: 0x11B03, size: 0x8, addend: 0x0, symName: __ZNSt3__117__compressed_pairImNS_19__map_value_compareIN7SoftUni12ResourceTypeENS_12__value_typeIS3_iEENS_4lessIS3_EELb1EEEE6secondB7v160006Ev, symObjAddr: 0x4C4C, symBinAddr: 0x100006C0C, symSize: 0x24 }
  - { offsetInCU: 0x11B29, offset: 0x11B29, size: 0x8, addend: 0x0, symName: __ZNSt3__122__compressed_pair_elemINS_19__map_value_compareIN7SoftUni12ResourceTypeENS_12__value_typeIS3_iEENS_4lessIS3_EELb1EEELi1ELb1EE5__getB7v160006Ev, symObjAddr: 0x4C70, symBinAddr: 0x100006C30, symSize: 0x14 }
  - { offsetInCU: 0x11B4F, offset: 0x11B4F, size: 0x8, addend: 0x0, symName: __ZNKSt3__14lessIN7SoftUni12ResourceTypeEEclB7v160006ERKS2_S5_, symObjAddr: 0x4C84, symBinAddr: 0x100006C44, symSize: 0x34 }
  - { offsetInCU: 0x11B93, offset: 0x11B93, size: 0x8, addend: 0x0, symName: __ZNKSt3__112__value_typeIN7SoftUni12ResourceTypeEiE11__get_valueB7v160006Ev, symObjAddr: 0x4CB8, symBinAddr: 0x100006C78, symSize: 0x24 }
  - { offsetInCU: 0x11BB9, offset: 0x11BB9, size: 0x8, addend: 0x0, symName: __ZNSt3__116allocator_traitsINS_9allocatorINS_11__tree_nodeINS_12__value_typeIN7SoftUni12ResourceTypeEiEEPvEEEEE8allocateB7v160006ERS9_m, symObjAddr: 0x4D14, symBinAddr: 0x100006CD4, symSize: 0x2C }
  - { offsetInCU: 0x11BEC, offset: 0x11BEC, size: 0x8, addend: 0x0, symName: __ZNSt3__122__tree_node_destructorINS_9allocatorINS_11__tree_nodeINS_12__value_typeIN7SoftUni12ResourceTypeEiEEPvEEEEEC1B7v160006ERS9_b, symObjAddr: 0x4D40, symBinAddr: 0x100006D00, symSize: 0x48 }
  - { offsetInCU: 0x11C39, offset: 0x11C39, size: 0x8, addend: 0x0, symName: __ZNSt3__110unique_ptrINS_11__tree_nodeINS_12__value_typeIN7SoftUni12ResourceTypeEiEEPvEENS_22__tree_node_destructorINS_9allocatorIS7_EEEEEC1B7v160006ILb1EvEEPS7_NS_16__dependent_typeINS_27__unique_ptr_deleter_sfinaeISB_EEXT_EE20__good_rval_ref_typeE, symObjAddr: 0x4D88, symBinAddr: 0x100006D48, symSize: 0x3C }
  - { offsetInCU: 0x11C8A, offset: 0x11C8A, size: 0x8, addend: 0x0, symName: __ZNSt3__116allocator_traitsINS_9allocatorINS_11__tree_nodeINS_12__value_typeIN7SoftUni12ResourceTypeEiEEPvEEEEE9constructB7v160006INS_4pairIKS5_iEEJRKNS_21piecewise_construct_tENS_5tupleIJOS5_EEENSI_IJEEEEvEEvRS9_PT_DpOT0_, symObjAddr: 0x4DC4, symBinAddr: 0x100006D84, symSize: 0x44 }
  - { offsetInCU: 0x11D09, offset: 0x11D09, size: 0x8, addend: 0x0, symName: __ZNKSt3__110unique_ptrINS_11__tree_nodeINS_12__value_typeIN7SoftUni12ResourceTypeEiEEPvEENS_22__tree_node_destructorINS_9allocatorIS7_EEEEEptB7v160006Ev, symObjAddr: 0x4E08, symBinAddr: 0x100006DC8, symSize: 0x28 }
  - { offsetInCU: 0x11D2F, offset: 0x11D2F, size: 0x8, addend: 0x0, symName: __ZNSt3__110unique_ptrINS_11__tree_nodeINS_12__value_typeIN7SoftUni12ResourceTypeEiEEPvEENS_22__tree_node_destructorINS_9allocatorIS7_EEEEE11get_deleterB7v160006Ev, symObjAddr: 0x4E30, symBinAddr: 0x100006DF0, symSize: 0x24 }
  - { offsetInCU: 0x11D55, offset: 0x11D55, size: 0x8, addend: 0x0, symName: __ZNSt3__19allocatorINS_11__tree_nodeINS_12__value_typeIN7SoftUni12ResourceTypeEiEEPvEEE8allocateB7v160006Em, symObjAddr: 0x4E54, symBinAddr: 0x100006E14, symSize: 0x5C }
  - { offsetInCU: 0x11D93, offset: 0x11D93, size: 0x8, addend: 0x0, symName: __ZNSt3__116allocator_traitsINS_9allocatorINS_11__tree_nodeINS_12__value_typeIN7SoftUni12ResourceTypeEiEEPvEEEEE8max_sizeB7v160006IS9_vEEmRKS9_, symObjAddr: 0x4EB0, symBinAddr: 0x100006E70, symSize: 0x24 }
  - { offsetInCU: 0x11DC1, offset: 0x11DC1, size: 0x8, addend: 0x0, symName: __ZNKSt3__19allocatorINS_11__tree_nodeINS_12__value_typeIN7SoftUni12ResourceTypeEiEEPvEEE8max_sizeB7v160006Ev, symObjAddr: 0x4ED4, symBinAddr: 0x100006E94, symSize: 0x18 }
  - { offsetInCU: 0x11DE7, offset: 0x11DE7, size: 0x8, addend: 0x0, symName: __ZNSt3__122__tree_node_destructorINS_9allocatorINS_11__tree_nodeINS_12__value_typeIN7SoftUni12ResourceTypeEiEEPvEEEEEC2B7v160006ERS9_b, symObjAddr: 0x4EEC, symBinAddr: 0x100006EAC, symSize: 0x38 }
  - { offsetInCU: 0x11E2F, offset: 0x11E2F, size: 0x8, addend: 0x0, symName: __ZNSt3__110unique_ptrINS_11__tree_nodeINS_12__value_typeIN7SoftUni12ResourceTypeEiEEPvEENS_22__tree_node_destructorINS_9allocatorIS7_EEEEEC2B7v160006ILb1EvEEPS7_NS_16__dependent_typeINS_27__unique_ptr_deleter_sfinaeISB_EEXT_EE20__good_rval_ref_typeE, symObjAddr: 0x4F24, symBinAddr: 0x100006EE4, symSize: 0x48 }
  - { offsetInCU: 0x11E80, offset: 0x11E80, size: 0x8, addend: 0x0, symName: __ZNSt3__117__compressed_pairIPNS_11__tree_nodeINS_12__value_typeIN7SoftUni12ResourceTypeEiEEPvEENS_22__tree_node_destructorINS_9allocatorIS7_EEEEEC1B7v160006IRS8_SC_EEOT_OT0_, symObjAddr: 0x4F6C, symBinAddr: 0x100006F2C, symSize: 0x3C }
  - { offsetInCU: 0x11ED8, offset: 0x11ED8, size: 0x8, addend: 0x0, symName: __ZNSt3__117__compressed_pairIPNS_11__tree_nodeINS_12__value_typeIN7SoftUni12ResourceTypeEiEEPvEENS_22__tree_node_destructorINS_9allocatorIS7_EEEEEC2B7v160006IRS8_SC_EEOT_OT0_, symObjAddr: 0x4FA8, symBinAddr: 0x100006F68, symSize: 0x48 }
  - { offsetInCU: 0x11F30, offset: 0x11F30, size: 0x8, addend: 0x0, symName: __ZNSt3__122__compressed_pair_elemIPNS_11__tree_nodeINS_12__value_typeIN7SoftUni12ResourceTypeEiEEPvEELi0ELb0EEC2B7v160006IRS8_vEEOT_, symObjAddr: 0x4FF0, symBinAddr: 0x100006FB0, symSize: 0x24 }
  - { offsetInCU: 0x11F72, offset: 0x11F72, size: 0x8, addend: 0x0, symName: __ZNSt3__122__compressed_pair_elemINS_22__tree_node_destructorINS_9allocatorINS_11__tree_nodeINS_12__value_typeIN7SoftUni12ResourceTypeEiEEPvEEEEEELi1ELb0EEC2B7v160006ISB_vEEOT_, symObjAddr: 0x5014, symBinAddr: 0x100006FD4, symSize: 0x24 }
  - { offsetInCU: 0x11FB4, offset: 0x11FB4, size: 0x8, addend: 0x0, symName: __ZNSt3__19allocatorINS_11__tree_nodeINS_12__value_typeIN7SoftUni12ResourceTypeEiEEPvEEE9constructB7v160006INS_4pairIKS4_iEEJRKNS_21piecewise_construct_tENS_5tupleIJOS4_EEENSG_IJEEEEEEvPT_DpOT0_, symObjAddr: 0x5038, symBinAddr: 0x100006FF8, symSize: 0x44 }
  - { offsetInCU: 0x12030, offset: 0x12030, size: 0x8, addend: 0x0, symName: __ZNSt3__14pairIKN7SoftUni12ResourceTypeEiEC1B7v160006IJOS2_EJEEENS_21piecewise_construct_tENS_5tupleIJDpT_EEENS8_IJDpT0_EEE, symObjAddr: 0x507C, symBinAddr: 0x10000703C, symSize: 0x44 }
  - { offsetInCU: 0x12097, offset: 0x12097, size: 0x8, addend: 0x0, symName: __ZNSt3__14pairIKN7SoftUni12ResourceTypeEiEC1B7v160006IJOS2_EJEJLm0EEJEEENS_21piecewise_construct_tERNS_5tupleIJDpT_EEERNS8_IJDpT0_EEENS_15__tuple_indicesIJXspT1_EEEENSH_IJXspT2_EEEE, symObjAddr: 0x50C0, symBinAddr: 0x100007080, symSize: 0x3C }
  - { offsetInCU: 0x12127, offset: 0x12127, size: 0x8, addend: 0x0, symName: __ZNSt3__14pairIKN7SoftUni12ResourceTypeEiEC2B7v160006IJOS2_EJEJLm0EEJEEENS_21piecewise_construct_tERNS_5tupleIJDpT_EEERNS8_IJDpT0_EEENS_15__tuple_indicesIJXspT1_EEEENSH_IJXspT2_EEEE, symObjAddr: 0x50FC, symBinAddr: 0x1000070BC, symSize: 0x48 }
  - { offsetInCU: 0x121B7, offset: 0x121B7, size: 0x8, addend: 0x0, symName: __ZNSt3__112__tuple_leafILm0EON7SoftUni12ResourceTypeELb0EE3getB7v160006Ev, symObjAddr: 0x5168, symBinAddr: 0x100007128, symSize: 0x18 }
  - { offsetInCU: 0x121DD, offset: 0x121DD, size: 0x8, addend: 0x0, symName: __ZNKSt3__117__compressed_pairIPNS_11__tree_nodeINS_12__value_typeIN7SoftUni12ResourceTypeEiEEPvEENS_22__tree_node_destructorINS_9allocatorIS7_EEEEE5firstB7v160006Ev, symObjAddr: 0x5180, symBinAddr: 0x100007140, symSize: 0x24 }
  - { offsetInCU: 0x12203, offset: 0x12203, size: 0x8, addend: 0x0, symName: __ZNKSt3__122__compressed_pair_elemIPNS_11__tree_nodeINS_12__value_typeIN7SoftUni12ResourceTypeEiEEPvEELi0ELb0EE5__getB7v160006Ev, symObjAddr: 0x51A4, symBinAddr: 0x100007164, symSize: 0x14 }
  - { offsetInCU: 0x12229, offset: 0x12229, size: 0x8, addend: 0x0, symName: __ZNSt3__117__compressed_pairIPNS_11__tree_nodeINS_12__value_typeIN7SoftUni12ResourceTypeEiEEPvEENS_22__tree_node_destructorINS_9allocatorIS7_EEEEE6secondB7v160006Ev, symObjAddr: 0x51B8, symBinAddr: 0x100007178, symSize: 0x28 }
  - { offsetInCU: 0x1224F, offset: 0x1224F, size: 0x8, addend: 0x0, symName: __ZNSt3__122__compressed_pair_elemINS_22__tree_node_destructorINS_9allocatorINS_11__tree_nodeINS_12__value_typeIN7SoftUni12ResourceTypeEiEEPvEEEEEELi1ELb0EE5__getB7v160006Ev, symObjAddr: 0x51E0, symBinAddr: 0x1000071A0, symSize: 0x14 }
  - { offsetInCU: 0x12275, offset: 0x12275, size: 0x8, addend: 0x0, symName: __ZNSt3__16__treeINS_12__value_typeIN7SoftUni12ResourceTypeEiEENS_19__map_value_compareIS3_S4_NS_4lessIS3_EELb1EEENS_9allocatorIS4_EEE4sizeB7v160006Ev, symObjAddr: 0x51F4, symBinAddr: 0x1000071B4, symSize: 0x28 }
  - { offsetInCU: 0x1229B, offset: 0x1229B, size: 0x8, addend: 0x0, symName: __ZNSt3__117__compressed_pairImNS_19__map_value_compareIN7SoftUni12ResourceTypeENS_12__value_typeIS3_iEENS_4lessIS3_EELb1EEEE5firstB7v160006Ev, symObjAddr: 0x521C, symBinAddr: 0x1000071DC, symSize: 0x24 }
  - { offsetInCU: 0x122C1, offset: 0x122C1, size: 0x8, addend: 0x0, symName: __ZNSt3__117__compressed_pairIPNS_11__tree_nodeINS_12__value_typeIN7SoftUni12ResourceTypeEiEEPvEENS_22__tree_node_destructorINS_9allocatorIS7_EEEEE5firstB7v160006Ev, symObjAddr: 0x5240, symBinAddr: 0x100007200, symSize: 0x24 }
  - { offsetInCU: 0x122E7, offset: 0x122E7, size: 0x8, addend: 0x0, symName: __ZNSt3__122__compressed_pair_elemIPNS_11__tree_nodeINS_12__value_typeIN7SoftUni12ResourceTypeEiEEPvEELi0ELb0EE5__getB7v160006Ev, symObjAddr: 0x5264, symBinAddr: 0x100007224, symSize: 0x14 }
  - { offsetInCU: 0x1230D, offset: 0x1230D, size: 0x8, addend: 0x0, symName: __ZNSt3__110unique_ptrINS_11__tree_nodeINS_12__value_typeIN7SoftUni12ResourceTypeEiEEPvEENS_22__tree_node_destructorINS_9allocatorIS7_EEEEED2B7v160006Ev, symObjAddr: 0x5278, symBinAddr: 0x100007238, symSize: 0x30 }
  - { offsetInCU: 0x12337, offset: 0x12337, size: 0x8, addend: 0x0, symName: __ZNSt3__110unique_ptrINS_11__tree_nodeINS_12__value_typeIN7SoftUni12ResourceTypeEiEEPvEENS_22__tree_node_destructorINS_9allocatorIS7_EEEEE5resetB7v160006EPS7_, symObjAddr: 0x52A8, symBinAddr: 0x100007268, symSize: 0x78 }
  - { offsetInCU: 0x1237B, offset: 0x1237B, size: 0x8, addend: 0x0, symName: __ZNSt3__122__tree_node_destructorINS_9allocatorINS_11__tree_nodeINS_12__value_typeIN7SoftUni12ResourceTypeEiEEPvEEEEEclB7v160006EPS8_, symObjAddr: 0x5320, symBinAddr: 0x1000072E0, symSize: 0x94 }
  - { offsetInCU: 0x123B0, offset: 0x123B0, size: 0x8, addend: 0x0, symName: __ZNSt3__115__tree_iteratorINS_12__value_typeIN7SoftUni12ResourceTypeEiEEPNS_11__tree_nodeIS4_PvEElEC2B7v160006ES8_, symObjAddr: 0x53B4, symBinAddr: 0x100007374, symSize: 0x20 }
  - { offsetInCU: 0x123E9, offset: 0x123E9, size: 0x8, addend: 0x0, symName: __ZNSt3__14pairINS_15__tree_iteratorINS_12__value_typeIN7SoftUni12ResourceTypeEiEEPNS_11__tree_nodeIS5_PvEElEEbEC2B7v160006ISA_RbLS7_0EEEOT_OT0_, symObjAddr: 0x53D4, symBinAddr: 0x100007394, symSize: 0x38 }
  - { offsetInCU: 0x12447, offset: 0x12447, size: 0x8, addend: 0x0, symName: __ZNSt3__15tupleIJON7SoftUni12ResourceTypeEEEC1B7v160006IJS2_ELi0EEEDpOT_, symObjAddr: 0x540C, symBinAddr: 0x1000073CC, symSize: 0x34 }
  - { offsetInCU: 0x12491, offset: 0x12491, size: 0x8, addend: 0x0, symName: __ZNSt3__15tupleIJON7SoftUni12ResourceTypeEEEC2B7v160006IJS2_ELi0EEEDpOT_, symObjAddr: 0x5440, symBinAddr: 0x100007400, symSize: 0x34 }
  - { offsetInCU: 0x124DB, offset: 0x124DB, size: 0x8, addend: 0x0, symName: __ZNSt3__112__tuple_implINS_15__tuple_indicesIJLm0EEEEJON7SoftUni12ResourceTypeEEEC1B7v160006IJLm0EEJS5_EJEJEJS4_EEENS1_IJXspT_EEEENS_13__tuple_typesIJDpT0_EEENS1_IJXspT1_EEEENS9_IJDpT2_EEEDpOT3_, symObjAddr: 0x5474, symBinAddr: 0x100007434, symSize: 0x34 }
  - { offsetInCU: 0x12570, offset: 0x12570, size: 0x8, addend: 0x0, symName: __ZNSt3__112__tuple_implINS_15__tuple_indicesIJLm0EEEEJON7SoftUni12ResourceTypeEEEC2B7v160006IJLm0EEJS5_EJEJEJS4_EEENS1_IJXspT_EEEENS_13__tuple_typesIJDpT0_EEENS1_IJXspT1_EEEENS9_IJDpT2_EEEDpOT3_, symObjAddr: 0x54A8, symBinAddr: 0x100007468, symSize: 0x34 }
  - { offsetInCU: 0x12605, offset: 0x12605, size: 0x8, addend: 0x0, symName: __ZNSt3__112__tuple_leafILm0EON7SoftUni12ResourceTypeELb0EEC2B7v160006IS2_vEEOT_, symObjAddr: 0x54DC, symBinAddr: 0x10000749C, symSize: 0x20 }
  - { offsetInCU: 0x12648, offset: 0x12648, size: 0x8, addend: 0x0, symName: __ZNSt3__114pointer_traitsIPNS_12__value_typeIN7SoftUni12ResourceTypeEiEEE10pointer_toB7v160006ERS4_, symObjAddr: 0x54FC, symBinAddr: 0x1000074BC, symSize: 0x14 }
  - { offsetInCU: 0x1266B, offset: 0x1266B, size: 0x8, addend: 0x0, symName: __ZNKSt3__115__tree_iteratorINS_12__value_typeIN7SoftUni12ResourceTypeEiEEPNS_11__tree_nodeIS4_PvEElE8__get_npB7v160006Ev, symObjAddr: 0x5510, symBinAddr: 0x1000074D0, symSize: 0x18 }
  - { offsetInCU: 0x12691, offset: 0x12691, size: 0x8, addend: 0x0, symName: __ZNSt3__16__treeINS_12__value_typeIN7SoftUni12ResourceTypeEiEENS_19__map_value_compareIS3_S4_NS_4lessIS3_EELb1EEENS_9allocatorIS4_EEE5beginB7v160006Ev, symObjAddr: 0x5528, symBinAddr: 0x1000074E8, symSize: 0x34 }
  - { offsetInCU: 0x126B7, offset: 0x126B7, size: 0x8, addend: 0x0, symName: __ZNSt3__114__map_iteratorINS_15__tree_iteratorINS_12__value_typeIN7SoftUni12ResourceTypeEiEEPNS_11__tree_nodeIS5_PvEElEEEC1B7v160006ESA_, symObjAddr: 0x555C, symBinAddr: 0x10000751C, symSize: 0x34 }
  - { offsetInCU: 0x126F0, offset: 0x126F0, size: 0x8, addend: 0x0, symName: __ZNSt3__115__tree_iteratorINS_12__value_typeIN7SoftUni12ResourceTypeEiEEPNS_11__tree_nodeIS4_PvEElEC1B7v160006EPNS_15__tree_end_nodeIPNS_16__tree_node_baseIS6_EEEE, symObjAddr: 0x5590, symBinAddr: 0x100007550, symSize: 0x34 }
  - { offsetInCU: 0x12729, offset: 0x12729, size: 0x8, addend: 0x0, symName: __ZNSt3__115__tree_iteratorINS_12__value_typeIN7SoftUni12ResourceTypeEiEEPNS_11__tree_nodeIS4_PvEElEC2B7v160006EPNS_15__tree_end_nodeIPNS_16__tree_node_baseIS6_EEEE, symObjAddr: 0x55C4, symBinAddr: 0x100007584, symSize: 0x20 }
  - { offsetInCU: 0x12762, offset: 0x12762, size: 0x8, addend: 0x0, symName: __ZNSt3__114__map_iteratorINS_15__tree_iteratorINS_12__value_typeIN7SoftUni12ResourceTypeEiEEPNS_11__tree_nodeIS5_PvEElEEEC2B7v160006ESA_, symObjAddr: 0x55E4, symBinAddr: 0x1000075A4, symSize: 0x20 }
  - { offsetInCU: 0x1279B, offset: 0x1279B, size: 0x8, addend: 0x0, symName: __ZNSt3__16__treeINS_12__value_typeIN7SoftUni12ResourceTypeEiEENS_19__map_value_compareIS3_S4_NS_4lessIS3_EELb1EEENS_9allocatorIS4_EEE3endB7v160006Ev, symObjAddr: 0x5604, symBinAddr: 0x1000075C4, symSize: 0x34 }
  - { offsetInCU: 0x127C1, offset: 0x127C1, size: 0x8, addend: 0x0, symName: __ZNSt3__115__tree_iteratorINS_12__value_typeIN7SoftUni12ResourceTypeEiEEPNS_11__tree_nodeIS4_PvEElEppB7v160006Ev, symObjAddr: 0x569C, symBinAddr: 0x10000765C, symSize: 0x38 }
...
